
bomb:     file format elf64-x86-64
bomb
architecture: i386:x86-64, flags 0x00000112:
EXEC_P, HAS_SYMS, D_PAGED
start address 0x0000000000400d50

Program Header:
    PHDR off    0x0000000000000040 vaddr 0x0000000000400040 paddr 0x0000000000400040 align 2**3
         filesz 0x00000000000001f8 memsz 0x00000000000001f8 flags r-x
  INTERP off    0x0000000000000238 vaddr 0x0000000000400238 paddr 0x0000000000400238 align 2**0
         filesz 0x000000000000001c memsz 0x000000000000001c flags r--
    LOAD off    0x0000000000000000 vaddr 0x0000000000400000 paddr 0x0000000000400000 align 2**21
         filesz 0x000000000000358c memsz 0x000000000000358c flags r-x
    LOAD off    0x0000000000003e10 vaddr 0x0000000000603e10 paddr 0x0000000000603e10 align 2**21
         filesz 0x0000000000000d70 memsz 0x0000000000001440 flags rw-
 DYNAMIC off    0x0000000000003e28 vaddr 0x0000000000603e28 paddr 0x0000000000603e28 align 2**3
         filesz 0x00000000000001d0 memsz 0x00000000000001d0 flags rw-
    NOTE off    0x0000000000000254 vaddr 0x0000000000400254 paddr 0x0000000000400254 align 2**2
         filesz 0x0000000000000044 memsz 0x0000000000000044 flags r--
EH_FRAME off    0x0000000000002f04 vaddr 0x0000000000402f04 paddr 0x0000000000402f04 align 2**2
         filesz 0x0000000000000124 memsz 0x0000000000000124 flags r--
   STACK off    0x0000000000000000 vaddr 0x0000000000000000 paddr 0x0000000000000000 align 2**4
         filesz 0x0000000000000000 memsz 0x0000000000000000 flags rw-
   RELRO off    0x0000000000003e10 vaddr 0x0000000000603e10 paddr 0x0000000000603e10 align 2**0
         filesz 0x00000000000001f0 memsz 0x00000000000001f0 flags r--

Dynamic Section:
  NEEDED               libc.so.6
  INIT                 0x0000000000400b38
  FINI                 0x00000000004025b4
  INIT_ARRAY           0x0000000000603e10
  INIT_ARRAYSZ         0x0000000000000008
  FINI_ARRAY           0x0000000000603e18
  FINI_ARRAYSZ         0x0000000000000008
  GNU_HASH             0x0000000000400298
  STRTAB               0x00000000004005f8
  SYMTAB               0x00000000004002c8
  STRSZ                0x000000000000017e
  SYMENT               0x0000000000000018
  DEBUG                0x0000000000000000
  PLTGOT               0x0000000000604000
  PLTRELSZ             0x00000000000002b8
  PLTREL               0x0000000000000007
  JMPREL               0x0000000000400880
  RELA                 0x0000000000400820
  RELASZ               0x0000000000000060
  RELAENT              0x0000000000000018
  VERNEED              0x00000000004007c0
  VERNEEDNUM           0x0000000000000001
  VERSYM               0x0000000000400776

Version References:
  required from libc.so.6:
    0x0d696913 0x00 06 GLIBC_2.3
    0x0d696917 0x00 05 GLIBC_2.7
    0x09691974 0x00 04 GLIBC_2.3.4
    0x0d696914 0x00 03 GLIBC_2.4
    0x09691a75 0x00 02 GLIBC_2.2.5

Sections:
Idx Name          Size      VMA               LMA               File off  Algn
  0 .interp       0000001c  0000000000400238  0000000000400238  00000238  2**0
                  CONTENTS, ALLOC, LOAD, READONLY, DATA
  1 .note.ABI-tag 00000020  0000000000400254  0000000000400254  00000254  2**2
                  CONTENTS, ALLOC, LOAD, READONLY, DATA
  2 .note.gnu.build-id 00000024  0000000000400274  0000000000400274  00000274  2**2
                  CONTENTS, ALLOC, LOAD, READONLY, DATA
  3 .gnu.hash     00000030  0000000000400298  0000000000400298  00000298  2**3
                  CONTENTS, ALLOC, LOAD, READONLY, DATA
  4 .dynsym       00000330  00000000004002c8  00000000004002c8  000002c8  2**3
                  CONTENTS, ALLOC, LOAD, READONLY, DATA
  5 .dynstr       0000017e  00000000004005f8  00000000004005f8  000005f8  2**0
                  CONTENTS, ALLOC, LOAD, READONLY, DATA
  6 .gnu.version  00000044  0000000000400776  0000000000400776  00000776  2**1
                  CONTENTS, ALLOC, LOAD, READONLY, DATA
  7 .gnu.version_r 00000060  00000000004007c0  00000000004007c0  000007c0  2**3
                  CONTENTS, ALLOC, LOAD, READONLY, DATA
  8 .rela.dyn     00000060  0000000000400820  0000000000400820  00000820  2**3
                  CONTENTS, ALLOC, LOAD, READONLY, DATA
  9 .rela.plt     000002b8  0000000000400880  0000000000400880  00000880  2**3
                  CONTENTS, ALLOC, LOAD, READONLY, DATA
 10 .init         0000001a  0000000000400b38  0000000000400b38  00000b38  2**2
                  CONTENTS, ALLOC, LOAD, READONLY, CODE
 11 .plt          000001e0  0000000000400b60  0000000000400b60  00000b60  2**4
                  CONTENTS, ALLOC, LOAD, READONLY, CODE
 12 .plt.got      00000008  0000000000400d40  0000000000400d40  00000d40  2**3
                  CONTENTS, ALLOC, LOAD, READONLY, CODE
 13 .text         00001862  0000000000400d50  0000000000400d50  00000d50  2**4
                  CONTENTS, ALLOC, LOAD, READONLY, CODE
 14 .fini         00000009  00000000004025b4  00000000004025b4  000025b4  2**2
                  CONTENTS, ALLOC, LOAD, READONLY, CODE
 15 .rodata       00000941  00000000004025c0  00000000004025c0  000025c0  2**5
                  CONTENTS, ALLOC, LOAD, READONLY, DATA
 16 .eh_frame_hdr 00000124  0000000000402f04  0000000000402f04  00002f04  2**2
                  CONTENTS, ALLOC, LOAD, READONLY, DATA
 17 .eh_frame     00000564  0000000000403028  0000000000403028  00003028  2**3
                  CONTENTS, ALLOC, LOAD, READONLY, DATA
 18 .init_array   00000008  0000000000603e10  0000000000603e10  00003e10  2**3
                  CONTENTS, ALLOC, LOAD, DATA
 19 .fini_array   00000008  0000000000603e18  0000000000603e18  00003e18  2**3
                  CONTENTS, ALLOC, LOAD, DATA
 20 .jcr          00000008  0000000000603e20  0000000000603e20  00003e20  2**3
                  CONTENTS, ALLOC, LOAD, DATA
 21 .dynamic      000001d0  0000000000603e28  0000000000603e28  00003e28  2**3
                  CONTENTS, ALLOC, LOAD, DATA
 22 .got          00000008  0000000000603ff8  0000000000603ff8  00003ff8  2**3
                  CONTENTS, ALLOC, LOAD, DATA
 23 .got.plt      00000100  0000000000604000  0000000000604000  00004000  2**3
                  CONTENTS, ALLOC, LOAD, DATA
 24 .data         00000a80  0000000000604100  0000000000604100  00004100  2**5
                  CONTENTS, ALLOC, LOAD, DATA
 25 .bss          000006d0  0000000000604b80  0000000000604b80  00004b80  2**5
                  ALLOC
 26 .comment      00000032  0000000000000000  0000000000000000  00004b80  2**0
                  CONTENTS, READONLY
 27 .debug_aranges 00000030  0000000000000000  0000000000000000  00004bb2  2**0
                  CONTENTS, READONLY, DEBUGGING, OCTETS
 28 .debug_info   00000aa0  0000000000000000  0000000000000000  00004be2  2**0
                  CONTENTS, READONLY, DEBUGGING, OCTETS
 29 .debug_abbrev 000001c8  0000000000000000  0000000000000000  00005682  2**0
                  CONTENTS, READONLY, DEBUGGING, OCTETS
 30 .debug_line   00000193  0000000000000000  0000000000000000  0000584a  2**0
                  CONTENTS, READONLY, DEBUGGING, OCTETS
 31 .debug_str    00000375  0000000000000000  0000000000000000  000059dd  2**0
                  CONTENTS, READONLY, DEBUGGING, OCTETS
 32 .debug_loc    000003a0  0000000000000000  0000000000000000  00005d52  2**0
                  CONTENTS, READONLY, DEBUGGING, OCTETS
SYMBOL TABLE:
0000000000400238 l    d  .interp	0000000000000000              .interp
0000000000400254 l    d  .note.ABI-tag	0000000000000000              .note.ABI-tag
0000000000400274 l    d  .note.gnu.build-id	0000000000000000              .note.gnu.build-id
0000000000400298 l    d  .gnu.hash	0000000000000000              .gnu.hash
00000000004002c8 l    d  .dynsym	0000000000000000              .dynsym
00000000004005f8 l    d  .dynstr	0000000000000000              .dynstr
0000000000400776 l    d  .gnu.version	0000000000000000              .gnu.version
00000000004007c0 l    d  .gnu.version_r	0000000000000000              .gnu.version_r
0000000000400820 l    d  .rela.dyn	0000000000000000              .rela.dyn
0000000000400880 l    d  .rela.plt	0000000000000000              .rela.plt
0000000000400b38 l    d  .init	0000000000000000              .init
0000000000400b60 l    d  .plt	0000000000000000              .plt
0000000000400d40 l    d  .plt.got	0000000000000000              .plt.got
0000000000400d50 l    d  .text	0000000000000000              .text
00000000004025b4 l    d  .fini	0000000000000000              .fini
00000000004025c0 l    d  .rodata	0000000000000000              .rodata
0000000000402f04 l    d  .eh_frame_hdr	0000000000000000              .eh_frame_hdr
0000000000403028 l    d  .eh_frame	0000000000000000              .eh_frame
0000000000603e10 l    d  .init_array	0000000000000000              .init_array
0000000000603e18 l    d  .fini_array	0000000000000000              .fini_array
0000000000603e20 l    d  .jcr	0000000000000000              .jcr
0000000000603e28 l    d  .dynamic	0000000000000000              .dynamic
0000000000603ff8 l    d  .got	0000000000000000              .got
0000000000604000 l    d  .got.plt	0000000000000000              .got.plt
0000000000604100 l    d  .data	0000000000000000              .data
0000000000604b80 l    d  .bss	0000000000000000              .bss
0000000000000000 l    d  .comment	0000000000000000              .comment
0000000000000000 l    d  .debug_aranges	0000000000000000              .debug_aranges
0000000000000000 l    d  .debug_info	0000000000000000              .debug_info
0000000000000000 l    d  .debug_abbrev	0000000000000000              .debug_abbrev
0000000000000000 l    d  .debug_line	0000000000000000              .debug_line
0000000000000000 l    d  .debug_str	0000000000000000              .debug_str
0000000000000000 l    d  .debug_loc	0000000000000000              .debug_loc
0000000000000000 l    df *ABS*	0000000000000000              crtstuff.c
0000000000603e20 l     O .jcr	0000000000000000              __JCR_LIST__
0000000000400d80 l     F .text	0000000000000000              deregister_tm_clones
0000000000400dc0 l     F .text	0000000000000000              register_tm_clones
0000000000400e00 l     F .text	0000000000000000              __do_global_dtors_aux
0000000000604ba8 l     O .bss	0000000000000001              completed.7593
0000000000603e18 l     O .fini_array	0000000000000000              __do_global_dtors_aux_fini_array_entry
0000000000400e20 l     F .text	0000000000000000              frame_dummy
0000000000603e10 l     O .init_array	0000000000000000              __frame_dummy_init_array_entry
0000000000000000 l    df *ABS*	0000000000000000              bomb.c
0000000000000000 l    df *ABS*	0000000000000000              phases.c
0000000000402800 l     O .rodata	0000000000000040              array.3590
0000000000000000 l    df *ABS*	0000000000000000              support.c
000000000040145c l     F .text	0000000000000056              sig_handler
0000000000000000 l    df *ABS*	0000000000000000              driverlib.c
00000000004019d0 l     F .text	00000000000000bb              rio_readlineb
0000000000000000 l    df *ABS*	0000000000000000              crtstuff.c
0000000000403588 l     O .eh_frame	0000000000000000              __FRAME_END__
0000000000603e20 l     O .jcr	0000000000000000              __JCR_END__
0000000000000000 l    df *ABS*	0000000000000000              
0000000000603e18 l       .init_array	0000000000000000              __init_array_end
0000000000603e28 l     O .dynamic	0000000000000000              _DYNAMIC
0000000000603e10 l       .init_array	0000000000000000              __init_array_start
0000000000402f04 l       .eh_frame_hdr	0000000000000000              __GNU_EH_FRAME_HDR
0000000000604000 l     O .got.plt	0000000000000000              _GLOBAL_OFFSET_TABLE_
00000000004025b0 g     F .text	0000000000000002              __libc_csu_fini
0000000000401680 g     F .text	0000000000000041              skip
0000000000000000       F *UND*	0000000000000000              getenv@@GLIBC_2.2.5
0000000000401970 g     F .text	0000000000000032              phase_defused
00000000006041e0 g     O .data	0000000000000018              n31
0000000000000000       F *UND*	0000000000000000              strcasecmp@@GLIBC_2.2.5
0000000000000000       F *UND*	0000000000000000              __errno_location@@GLIBC_2.2.5
0000000000000000  w      *UND*	0000000000000000              _ITM_deregisterTMCloneTable
0000000000604b80 g     O .bss	0000000000000008              stdout@@GLIBC_2.2.5
0000000000604100  w      .data	0000000000000000              data_start
0000000000604bc0 g     O .bss	0000000000000640              input_strings
0000000000000000       F *UND*	0000000000000000              strcpy@@GLIBC_2.2.5
0000000000604220 g     O .data	0000000000000018              n33
0000000000000000       F *UND*	0000000000000000              puts@@GLIBC_2.2.5
0000000000604b90 g     O .bss	0000000000000008              stdin@@GLIBC_2.2.5
0000000000000000       F *UND*	0000000000000000              write@@GLIBC_2.2.5
0000000000604b80 g       .data	0000000000000000              _edata
00000000006042c0 g     O .data	0000000000000018              n44
0000000000604300 g     O .data	0000000000000018              n46
0000000000604280 g     O .data	0000000000000018              n42
0000000000604340 g     O .data	0000000000000018              n48
00000000004025b4 g     F .fini	0000000000000000              _fini
0000000000000000       F *UND*	0000000000000000              __stack_chk_fail@@GLIBC_2.4
0000000000604bac g     O .bss	0000000000000004              num_input_strings
0000000000401172 g     F .text	000000000000003c              phase_5
0000000000401643 g     F .text	0000000000000002              initialize_bomb_solve
00000000004012bc g     F .text	00000000000000a9              phase_7
0000000000401645 g     F .text	000000000000003b              blank_line
00000000004013e5 g     F .text	0000000000000077              phase_9
0000000000401a8b g     F .text	0000000000000836              submitr
000000000040105c g     F .text	000000000000006b              phase_3
0000000000400fe0 g     F .text	000000000000005e              phase_1
00000000004014b2 g     F .text	0000000000000025              invalid_phase
00000000004022e9 g     F .text	00000000000001e5              init_driver
0000000000000000       F *UND*	0000000000000000              alarm@@GLIBC_2.2.5
0000000000000000       F *UND*	0000000000000000              close@@GLIBC_2.2.5
0000000000604140 g     O .data	0000000000000010              node3
0000000000000000       F *UND*	0000000000000000              read@@GLIBC_2.2.5
0000000000000000       F *UND*	0000000000000000              __libc_start_main@@GLIBC_2.2.5
0000000000000000       F *UND*	0000000000000000              fgets@@GLIBC_2.2.5
00000000004017cd g     F .text	0000000000000036              explode_bomb
0000000000604120 g     O .data	0000000000000010              node1
0000000000604100 g       .data	0000000000000000              __data_start
0000000000000000       F *UND*	0000000000000000              signal@@GLIBC_2.2.5
0000000000000000       F *UND*	0000000000000000              gethostbyname@@GLIBC_2.2.5
0000000000604160 g     O .data	0000000000000010              node5
0000000000000000       F *UND*	0000000000000000              __memmove_chk@@GLIBC_2.3.4
0000000000000000  w      *UND*	0000000000000000              __gmon_start__
0000000000000000       F *UND*	0000000000000000              strtol@@GLIBC_2.2.5
0000000000604108 g     O .data	0000000000000000              .hidden __dso_handle
00000000004013a6 g     F .text	000000000000003f              fun9
00000000004025c0 g     O .rodata	0000000000000004              _IO_stdin_used
00000000006041c0 g     O .data	0000000000000018              n22
0000000000604780 g     O .data	0000000000000400              host_table
0000000000604180 g     O .data	0000000000000018              n1
0000000000401135 g     F .text	000000000000003d              fun5
00000000004014d7 g     F .text	000000000000001e              string_length
0000000000402540 g     F .text	0000000000000065              __libc_csu_init
0000000000000000       F *UND*	0000000000000000              malloc@@GLIBC_2.2.5
0000000000000000       F *UND*	0000000000000000              fflush@@GLIBC_2.2.5
0000000000000000       F *UND*	0000000000000000              __isoc99_sscanf@@GLIBC_2.7
0000000000604240 g     O .data	0000000000000018              n34
0000000000604200 g     O .data	0000000000000018              n32
0000000000605250 g       .bss	0000000000000000              _end
0000000000400d50 g     F .text	000000000000002a              _start
0000000000604bb0 g     O .bss	0000000000000008              infile
00000000004019a2 g     F .text	000000000000002e              sigalrm_handler
00000000004022c1 g     F .text	0000000000000028              init_timeout
0000000000604b80 g       .bss	0000000000000000              __bss_start
0000000000604360 g     O .data	0000000000000400              userid
0000000000400e46 g     F .text	000000000000019a              main
0000000000000000       F *UND*	0000000000000000              __printf_chk@@GLIBC_2.3.4
0000000000604320 g     O .data	0000000000000018              n47
00000000006042a0 g     O .data	0000000000000018              n43
0000000000604260 g     O .data	0000000000000018              n41
0000000000401842 g     F .text	000000000000012e              read_line
00000000006042e0 g     O .data	0000000000000018              n45
00000000004014f5 g     F .text	0000000000000067              strings_not_equal
00000000004010c7 g     F .text	000000000000006e              phase_4
0000000000401365 g     F .text	0000000000000041              phase_8
0000000000000000       F *UND*	0000000000000000              fopen@@GLIBC_2.2.5
00000000004011ae g     F .text	000000000000010e              phase_6
0000000000605200 g     O .bss	0000000000000050              scratch
0000000000000000  w      *UND*	0000000000000000              _Jv_RegisterClasses
00000000004024ce g     F .text	0000000000000071              driver_post
00000000004016c1 g     F .text	000000000000010c              send_msg
000000000040103e g     F .text	000000000000001e              phase_2
0000000000000000       F *UND*	0000000000000000              gethostname@@GLIBC_2.2.5
0000000000000000       F *UND*	0000000000000000              exit@@GLIBC_2.2.5
0000000000604760 g     O .data	0000000000000004              bomb_id
0000000000000000       F *UND*	0000000000000000              connect@@GLIBC_2.2.5
0000000000604b80 g     O .data	0000000000000000              .hidden __TMC_END__
0000000000000000       F *UND*	0000000000000000              __fprintf_chk@@GLIBC_2.3.4
0000000000000000  w      *UND*	0000000000000000              _ITM_registerTMCloneTable
0000000000604130 g     O .data	0000000000000010              node2
0000000000604150 g     O .data	0000000000000010              node4
0000000000000000       F *UND*	0000000000000000              sleep@@GLIBC_2.2.5
0000000000604170 g     O .data	0000000000000010              node6
0000000000400b38 g     F .init	0000000000000000              _init
0000000000401803 g     F .text	000000000000003f              read_six_numbers
00000000006041a0 g     O .data	0000000000000018              n21
000000000040155c g     F .text	00000000000000e7              initialize_bomb
0000000000000000       F *UND*	0000000000000000              __ctype_b_loc@@GLIBC_2.3
0000000000604ba0 g     O .bss	0000000000000008              stderr@@GLIBC_2.2.5
0000000000000000       F *UND*	0000000000000000              __sprintf_chk@@GLIBC_2.3.4
0000000000000000       F *UND*	0000000000000000              socket@@GLIBC_2.2.5



Disassembly of section .init:

0000000000400b38 <_init>:
  400b38:	48 83 ec 08          	sub    $0x8,%rsp
  400b3c:	48 8b 05 b5 34 20 00 	mov    0x2034b5(%rip),%rax        # 603ff8 <__gmon_start__>
  400b43:	48 85 c0             	test   %rax,%rax
  400b46:	74 05                	je     400b4d <_init+0x15>
  400b48:	e8 f3 01 00 00       	callq  400d40 <__gmon_start__@plt>
  400b4d:	48 83 c4 08          	add    $0x8,%rsp
  400b51:	c3                   	retq   

Disassembly of section .plt:

0000000000400b60 <.plt>:
  400b60:	ff 35 a2 34 20 00    	pushq  0x2034a2(%rip)        # 604008 <_GLOBAL_OFFSET_TABLE_+0x8>
  400b66:	ff 25 a4 34 20 00    	jmpq   *0x2034a4(%rip)        # 604010 <_GLOBAL_OFFSET_TABLE_+0x10>
  400b6c:	0f 1f 40 00          	nopl   0x0(%rax)

0000000000400b70 <getenv@plt>:
  400b70:	ff 25 a2 34 20 00    	jmpq   *0x2034a2(%rip)        # 604018 <getenv@GLIBC_2.2.5>
  400b76:	68 00 00 00 00       	pushq  $0x0
  400b7b:	e9 e0 ff ff ff       	jmpq   400b60 <.plt>

0000000000400b80 <strcasecmp@plt>:
  400b80:	ff 25 9a 34 20 00    	jmpq   *0x20349a(%rip)        # 604020 <strcasecmp@GLIBC_2.2.5>
  400b86:	68 01 00 00 00       	pushq  $0x1
  400b8b:	e9 d0 ff ff ff       	jmpq   400b60 <.plt>

0000000000400b90 <__errno_location@plt>:
  400b90:	ff 25 92 34 20 00    	jmpq   *0x203492(%rip)        # 604028 <__errno_location@GLIBC_2.2.5>
  400b96:	68 02 00 00 00       	pushq  $0x2
  400b9b:	e9 c0 ff ff ff       	jmpq   400b60 <.plt>

0000000000400ba0 <strcpy@plt>:
  400ba0:	ff 25 8a 34 20 00    	jmpq   *0x20348a(%rip)        # 604030 <strcpy@GLIBC_2.2.5>
  400ba6:	68 03 00 00 00       	pushq  $0x3
  400bab:	e9 b0 ff ff ff       	jmpq   400b60 <.plt>

0000000000400bb0 <puts@plt>:
  400bb0:	ff 25 82 34 20 00    	jmpq   *0x203482(%rip)        # 604038 <puts@GLIBC_2.2.5>
  400bb6:	68 04 00 00 00       	pushq  $0x4
  400bbb:	e9 a0 ff ff ff       	jmpq   400b60 <.plt>

0000000000400bc0 <write@plt>:
  400bc0:	ff 25 7a 34 20 00    	jmpq   *0x20347a(%rip)        # 604040 <write@GLIBC_2.2.5>
  400bc6:	68 05 00 00 00       	pushq  $0x5
  400bcb:	e9 90 ff ff ff       	jmpq   400b60 <.plt>

0000000000400bd0 <__stack_chk_fail@plt>:
  400bd0:	ff 25 72 34 20 00    	jmpq   *0x203472(%rip)        # 604048 <__stack_chk_fail@GLIBC_2.4>
  400bd6:	68 06 00 00 00       	pushq  $0x6
  400bdb:	e9 80 ff ff ff       	jmpq   400b60 <.plt>

0000000000400be0 <alarm@plt>:
  400be0:	ff 25 6a 34 20 00    	jmpq   *0x20346a(%rip)        # 604050 <alarm@GLIBC_2.2.5>
  400be6:	68 07 00 00 00       	pushq  $0x7
  400beb:	e9 70 ff ff ff       	jmpq   400b60 <.plt>

0000000000400bf0 <close@plt>:
  400bf0:	ff 25 62 34 20 00    	jmpq   *0x203462(%rip)        # 604058 <close@GLIBC_2.2.5>
  400bf6:	68 08 00 00 00       	pushq  $0x8
  400bfb:	e9 60 ff ff ff       	jmpq   400b60 <.plt>

0000000000400c00 <read@plt>:
  400c00:	ff 25 5a 34 20 00    	jmpq   *0x20345a(%rip)        # 604060 <read@GLIBC_2.2.5>
  400c06:	68 09 00 00 00       	pushq  $0x9
  400c0b:	e9 50 ff ff ff       	jmpq   400b60 <.plt>

0000000000400c10 <__libc_start_main@plt>:
  400c10:	ff 25 52 34 20 00    	jmpq   *0x203452(%rip)        # 604068 <__libc_start_main@GLIBC_2.2.5>
  400c16:	68 0a 00 00 00       	pushq  $0xa
  400c1b:	e9 40 ff ff ff       	jmpq   400b60 <.plt>

0000000000400c20 <fgets@plt>:
  400c20:	ff 25 4a 34 20 00    	jmpq   *0x20344a(%rip)        # 604070 <fgets@GLIBC_2.2.5>
  400c26:	68 0b 00 00 00       	pushq  $0xb
  400c2b:	e9 30 ff ff ff       	jmpq   400b60 <.plt>

0000000000400c30 <signal@plt>:
  400c30:	ff 25 42 34 20 00    	jmpq   *0x203442(%rip)        # 604078 <signal@GLIBC_2.2.5>
  400c36:	68 0c 00 00 00       	pushq  $0xc
  400c3b:	e9 20 ff ff ff       	jmpq   400b60 <.plt>

0000000000400c40 <gethostbyname@plt>:
  400c40:	ff 25 3a 34 20 00    	jmpq   *0x20343a(%rip)        # 604080 <gethostbyname@GLIBC_2.2.5>
  400c46:	68 0d 00 00 00       	pushq  $0xd
  400c4b:	e9 10 ff ff ff       	jmpq   400b60 <.plt>

0000000000400c50 <__memmove_chk@plt>:
  400c50:	ff 25 32 34 20 00    	jmpq   *0x203432(%rip)        # 604088 <__memmove_chk@GLIBC_2.3.4>
  400c56:	68 0e 00 00 00       	pushq  $0xe
  400c5b:	e9 00 ff ff ff       	jmpq   400b60 <.plt>

0000000000400c60 <strtol@plt>:
  400c60:	ff 25 2a 34 20 00    	jmpq   *0x20342a(%rip)        # 604090 <strtol@GLIBC_2.2.5>
  400c66:	68 0f 00 00 00       	pushq  $0xf
  400c6b:	e9 f0 fe ff ff       	jmpq   400b60 <.plt>

0000000000400c70 <malloc@plt>:
  400c70:	ff 25 22 34 20 00    	jmpq   *0x203422(%rip)        # 604098 <malloc@GLIBC_2.2.5>
  400c76:	68 10 00 00 00       	pushq  $0x10
  400c7b:	e9 e0 fe ff ff       	jmpq   400b60 <.plt>

0000000000400c80 <fflush@plt>:
  400c80:	ff 25 1a 34 20 00    	jmpq   *0x20341a(%rip)        # 6040a0 <fflush@GLIBC_2.2.5>
  400c86:	68 11 00 00 00       	pushq  $0x11
  400c8b:	e9 d0 fe ff ff       	jmpq   400b60 <.plt>

0000000000400c90 <__isoc99_sscanf@plt>:
  400c90:	ff 25 12 34 20 00    	jmpq   *0x203412(%rip)        # 6040a8 <__isoc99_sscanf@GLIBC_2.7>
  400c96:	68 12 00 00 00       	pushq  $0x12
  400c9b:	e9 c0 fe ff ff       	jmpq   400b60 <.plt>

0000000000400ca0 <__printf_chk@plt>:
  400ca0:	ff 25 0a 34 20 00    	jmpq   *0x20340a(%rip)        # 6040b0 <__printf_chk@GLIBC_2.3.4>
  400ca6:	68 13 00 00 00       	pushq  $0x13
  400cab:	e9 b0 fe ff ff       	jmpq   400b60 <.plt>

0000000000400cb0 <fopen@plt>:
  400cb0:	ff 25 02 34 20 00    	jmpq   *0x203402(%rip)        # 6040b8 <fopen@GLIBC_2.2.5>
  400cb6:	68 14 00 00 00       	pushq  $0x14
  400cbb:	e9 a0 fe ff ff       	jmpq   400b60 <.plt>

0000000000400cc0 <gethostname@plt>:
  400cc0:	ff 25 fa 33 20 00    	jmpq   *0x2033fa(%rip)        # 6040c0 <gethostname@GLIBC_2.2.5>
  400cc6:	68 15 00 00 00       	pushq  $0x15
  400ccb:	e9 90 fe ff ff       	jmpq   400b60 <.plt>

0000000000400cd0 <exit@plt>:
  400cd0:	ff 25 f2 33 20 00    	jmpq   *0x2033f2(%rip)        # 6040c8 <exit@GLIBC_2.2.5>
  400cd6:	68 16 00 00 00       	pushq  $0x16
  400cdb:	e9 80 fe ff ff       	jmpq   400b60 <.plt>

0000000000400ce0 <connect@plt>:
  400ce0:	ff 25 ea 33 20 00    	jmpq   *0x2033ea(%rip)        # 6040d0 <connect@GLIBC_2.2.5>
  400ce6:	68 17 00 00 00       	pushq  $0x17
  400ceb:	e9 70 fe ff ff       	jmpq   400b60 <.plt>

0000000000400cf0 <__fprintf_chk@plt>:
  400cf0:	ff 25 e2 33 20 00    	jmpq   *0x2033e2(%rip)        # 6040d8 <__fprintf_chk@GLIBC_2.3.4>
  400cf6:	68 18 00 00 00       	pushq  $0x18
  400cfb:	e9 60 fe ff ff       	jmpq   400b60 <.plt>

0000000000400d00 <sleep@plt>:
  400d00:	ff 25 da 33 20 00    	jmpq   *0x2033da(%rip)        # 6040e0 <sleep@GLIBC_2.2.5>
  400d06:	68 19 00 00 00       	pushq  $0x19
  400d0b:	e9 50 fe ff ff       	jmpq   400b60 <.plt>

0000000000400d10 <__ctype_b_loc@plt>:
  400d10:	ff 25 d2 33 20 00    	jmpq   *0x2033d2(%rip)        # 6040e8 <__ctype_b_loc@GLIBC_2.3>
  400d16:	68 1a 00 00 00       	pushq  $0x1a
  400d1b:	e9 40 fe ff ff       	jmpq   400b60 <.plt>

0000000000400d20 <__sprintf_chk@plt>:
  400d20:	ff 25 ca 33 20 00    	jmpq   *0x2033ca(%rip)        # 6040f0 <__sprintf_chk@GLIBC_2.3.4>
  400d26:	68 1b 00 00 00       	pushq  $0x1b
  400d2b:	e9 30 fe ff ff       	jmpq   400b60 <.plt>

0000000000400d30 <socket@plt>:
  400d30:	ff 25 c2 33 20 00    	jmpq   *0x2033c2(%rip)        # 6040f8 <socket@GLIBC_2.2.5>
  400d36:	68 1c 00 00 00       	pushq  $0x1c
  400d3b:	e9 20 fe ff ff       	jmpq   400b60 <.plt>

Disassembly of section .plt.got:

0000000000400d40 <__gmon_start__@plt>:
  400d40:	ff 25 b2 32 20 00    	jmpq   *0x2032b2(%rip)        # 603ff8 <__gmon_start__>
  400d46:	66 90                	xchg   %ax,%ax

Disassembly of section .text:

0000000000400d50 <_start>:
  400d50:	31 ed                	xor    %ebp,%ebp
  400d52:	49 89 d1             	mov    %rdx,%r9
  400d55:	5e                   	pop    %rsi
  400d56:	48 89 e2             	mov    %rsp,%rdx
  400d59:	48 83 e4 f0          	and    $0xfffffffffffffff0,%rsp
  400d5d:	50                   	push   %rax
  400d5e:	54                   	push   %rsp
  400d5f:	49 c7 c0 b0 25 40 00 	mov    $0x4025b0,%r8
  400d66:	48 c7 c1 40 25 40 00 	mov    $0x402540,%rcx
  400d6d:	48 c7 c7 46 0e 40 00 	mov    $0x400e46,%rdi
  400d74:	e8 97 fe ff ff       	callq  400c10 <__libc_start_main@plt>
  400d79:	f4                   	hlt    
  400d7a:	66 0f 1f 44 00 00    	nopw   0x0(%rax,%rax,1)

0000000000400d80 <deregister_tm_clones>:
  400d80:	b8 87 4b 60 00       	mov    $0x604b87,%eax
  400d85:	55                   	push   %rbp
  400d86:	48 2d 80 4b 60 00    	sub    $0x604b80,%rax
  400d8c:	48 83 f8 0e          	cmp    $0xe,%rax
  400d90:	48 89 e5             	mov    %rsp,%rbp
  400d93:	76 1b                	jbe    400db0 <deregister_tm_clones+0x30>
  400d95:	b8 00 00 00 00       	mov    $0x0,%eax
  400d9a:	48 85 c0             	test   %rax,%rax
  400d9d:	74 11                	je     400db0 <deregister_tm_clones+0x30>
  400d9f:	5d                   	pop    %rbp
  400da0:	bf 80 4b 60 00       	mov    $0x604b80,%edi
  400da5:	ff e0                	jmpq   *%rax
  400da7:	66 0f 1f 84 00 00 00 	nopw   0x0(%rax,%rax,1)
  400dae:	00 00 
  400db0:	5d                   	pop    %rbp
  400db1:	c3                   	retq   
  400db2:	0f 1f 40 00          	nopl   0x0(%rax)
  400db6:	66 2e 0f 1f 84 00 00 	nopw   %cs:0x0(%rax,%rax,1)
  400dbd:	00 00 00 

0000000000400dc0 <register_tm_clones>:
  400dc0:	be 80 4b 60 00       	mov    $0x604b80,%esi
  400dc5:	55                   	push   %rbp
  400dc6:	48 81 ee 80 4b 60 00 	sub    $0x604b80,%rsi
  400dcd:	48 c1 fe 03          	sar    $0x3,%rsi
  400dd1:	48 89 e5             	mov    %rsp,%rbp
  400dd4:	48 89 f0             	mov    %rsi,%rax
  400dd7:	48 c1 e8 3f          	shr    $0x3f,%rax
  400ddb:	48 01 c6             	add    %rax,%rsi
  400dde:	48 d1 fe             	sar    %rsi
  400de1:	74 15                	je     400df8 <register_tm_clones+0x38>
  400de3:	b8 00 00 00 00       	mov    $0x0,%eax
  400de8:	48 85 c0             	test   %rax,%rax
  400deb:	74 0b                	je     400df8 <register_tm_clones+0x38>
  400ded:	5d                   	pop    %rbp
  400dee:	bf 80 4b 60 00       	mov    $0x604b80,%edi
  400df3:	ff e0                	jmpq   *%rax
  400df5:	0f 1f 00             	nopl   (%rax)
  400df8:	5d                   	pop    %rbp
  400df9:	c3                   	retq   
  400dfa:	66 0f 1f 44 00 00    	nopw   0x0(%rax,%rax,1)

0000000000400e00 <__do_global_dtors_aux>:
  400e00:	80 3d a1 3d 20 00 00 	cmpb   $0x0,0x203da1(%rip)        # 604ba8 <completed.7593>
  400e07:	75 11                	jne    400e1a <__do_global_dtors_aux+0x1a>
  400e09:	55                   	push   %rbp
  400e0a:	48 89 e5             	mov    %rsp,%rbp
  400e0d:	e8 6e ff ff ff       	callq  400d80 <deregister_tm_clones>
  400e12:	5d                   	pop    %rbp
  400e13:	c6 05 8e 3d 20 00 01 	movb   $0x1,0x203d8e(%rip)        # 604ba8 <completed.7593>
  400e1a:	f3 c3                	repz retq 
  400e1c:	0f 1f 40 00          	nopl   0x0(%rax)

0000000000400e20 <frame_dummy>:
  400e20:	bf 20 3e 60 00       	mov    $0x603e20,%edi
  400e25:	48 83 3f 00          	cmpq   $0x0,(%rdi)
  400e29:	75 05                	jne    400e30 <frame_dummy+0x10>
  400e2b:	eb 93                	jmp    400dc0 <register_tm_clones>
  400e2d:	0f 1f 00             	nopl   (%rax)
  400e30:	b8 00 00 00 00       	mov    $0x0,%eax
  400e35:	48 85 c0             	test   %rax,%rax
  400e38:	74 f1                	je     400e2b <frame_dummy+0xb>
  400e3a:	55                   	push   %rbp
  400e3b:	48 89 e5             	mov    %rsp,%rbp
  400e3e:	ff d0                	callq  *%rax
  400e40:	5d                   	pop    %rbp
  400e41:	e9 7a ff ff ff       	jmpq   400dc0 <register_tm_clones>

0000000000400e46 <main>:
  400e46:	53                   	push   %rbx
  400e47:	83 ff 01             	cmp    $0x1,%edi
  400e4a:	0f 84 3c 01 00 00    	je     400f8c <main+0x146>
  400e50:	48 89 f3             	mov    %rsi,%rbx
  400e53:	83 ff 02             	cmp    $0x2,%edi
  400e56:	0f 85 63 01 00 00    	jne    400fbf <main+0x179>
  400e5c:	48 8b 7e 08          	mov    0x8(%rsi),%rdi
  400e60:	be c4 25 40 00       	mov    $0x4025c4,%esi
  400e65:	e8 46 fe ff ff       	callq  400cb0 <fopen@plt>
  400e6a:	48 89 05 3f 3d 20 00 	mov    %rax,0x203d3f(%rip)        # 604bb0 <infile>
  400e71:	48 85 c0             	test   %rax,%rax
  400e74:	0f 84 25 01 00 00    	je     400f9f <main+0x159>
  400e7a:	e8 dd 06 00 00       	callq  40155c <initialize_bomb>
  400e7f:	bf 58 26 40 00       	mov    $0x402658,%edi
  400e84:	e8 27 fd ff ff       	callq  400bb0 <puts@plt>
  400e89:	bf 98 26 40 00       	mov    $0x402698,%edi
  400e8e:	e8 1d fd ff ff       	callq  400bb0 <puts@plt>
  400e93:	e8 aa 09 00 00       	callq  401842 <read_line>
  400e98:	48 89 c7             	mov    %rax,%rdi
  400e9b:	e8 40 01 00 00       	callq  400fe0 <phase_1>
  400ea0:	e8 cb 0a 00 00       	callq  401970 <phase_defused>
  400ea5:	bf c8 26 40 00       	mov    $0x4026c8,%edi
  400eaa:	e8 01 fd ff ff       	callq  400bb0 <puts@plt>
  400eaf:	e8 8e 09 00 00       	callq  401842 <read_line>
  400eb4:	48 89 c7             	mov    %rax,%rdi
  400eb7:	e8 82 01 00 00       	callq  40103e <phase_2>
  400ebc:	e8 af 0a 00 00       	callq  401970 <phase_defused>
  400ec1:	bf fd 25 40 00       	mov    $0x4025fd,%edi
  400ec6:	e8 e5 fc ff ff       	callq  400bb0 <puts@plt>
  400ecb:	e8 72 09 00 00       	callq  401842 <read_line>
  400ed0:	48 89 c7             	mov    %rax,%rdi
  400ed3:	e8 84 01 00 00       	callq  40105c <phase_3>
  400ed8:	e8 93 0a 00 00       	callq  401970 <phase_defused>
  400edd:	bf 1b 26 40 00       	mov    $0x40261b,%edi
  400ee2:	e8 c9 fc ff ff       	callq  400bb0 <puts@plt>
  400ee7:	e8 56 09 00 00       	callq  401842 <read_line>
  400eec:	48 89 c7             	mov    %rax,%rdi
  400eef:	e8 d3 01 00 00       	callq  4010c7 <phase_4>
  400ef4:	e8 77 0a 00 00       	callq  401970 <phase_defused>
  400ef9:	bf f8 26 40 00       	mov    $0x4026f8,%edi
  400efe:	e8 ad fc ff ff       	callq  400bb0 <puts@plt>
  400f03:	e8 3a 09 00 00       	callq  401842 <read_line>
  400f08:	48 89 c7             	mov    %rax,%rdi
  400f0b:	e8 62 02 00 00       	callq  401172 <phase_5>
  400f10:	e8 5b 0a 00 00       	callq  401970 <phase_defused>
  400f15:	bf 2c 26 40 00       	mov    $0x40262c,%edi
  400f1a:	e8 91 fc ff ff       	callq  400bb0 <puts@plt>
  400f1f:	e8 1e 09 00 00       	callq  401842 <read_line>
  400f24:	48 89 c7             	mov    %rax,%rdi
  400f27:	e8 82 02 00 00       	callq  4011ae <phase_6>
  400f2c:	e8 3f 0a 00 00       	callq  401970 <phase_defused>
  400f31:	bf 20 27 40 00       	mov    $0x402720,%edi
  400f36:	e8 75 fc ff ff       	callq  400bb0 <puts@plt>
  400f3b:	e8 02 09 00 00       	callq  401842 <read_line>
  400f40:	48 89 c7             	mov    %rax,%rdi
  400f43:	e8 74 03 00 00       	callq  4012bc <phase_7>
  400f48:	e8 23 0a 00 00       	callq  401970 <phase_defused>
  400f4d:	bf 40 27 40 00       	mov    $0x402740,%edi
  400f52:	e8 59 fc ff ff       	callq  400bb0 <puts@plt>
  400f57:	e8 e6 08 00 00       	callq  401842 <read_line>
  400f5c:	48 89 c7             	mov    %rax,%rdi
  400f5f:	e8 01 04 00 00       	callq  401365 <phase_8>
  400f64:	e8 07 0a 00 00       	callq  401970 <phase_defused>
  400f69:	bf 4a 26 40 00       	mov    $0x40264a,%edi
  400f6e:	e8 3d fc ff ff       	callq  400bb0 <puts@plt>
  400f73:	e8 ca 08 00 00       	callq  401842 <read_line>
  400f78:	48 89 c7             	mov    %rax,%rdi
  400f7b:	e8 65 04 00 00       	callq  4013e5 <phase_9>
  400f80:	e8 eb 09 00 00       	callq  401970 <phase_defused>
  400f85:	b8 00 00 00 00       	mov    $0x0,%eax
  400f8a:	5b                   	pop    %rbx
  400f8b:	c3                   	retq   
  400f8c:	48 8b 05 fd 3b 20 00 	mov    0x203bfd(%rip),%rax        # 604b90 <stdin@@GLIBC_2.2.5>
  400f93:	48 89 05 16 3c 20 00 	mov    %rax,0x203c16(%rip)        # 604bb0 <infile>
  400f9a:	e9 db fe ff ff       	jmpq   400e7a <main+0x34>
  400f9f:	48 8b 4b 08          	mov    0x8(%rbx),%rcx
  400fa3:	48 8b 13             	mov    (%rbx),%rdx
  400fa6:	be c6 25 40 00       	mov    $0x4025c6,%esi
  400fab:	bf 01 00 00 00       	mov    $0x1,%edi
  400fb0:	e8 eb fc ff ff       	callq  400ca0 <__printf_chk@plt>
  400fb5:	bf 08 00 00 00       	mov    $0x8,%edi
  400fba:	e8 11 fd ff ff       	callq  400cd0 <exit@plt>
  400fbf:	48 8b 16             	mov    (%rsi),%rdx
  400fc2:	be e3 25 40 00       	mov    $0x4025e3,%esi
  400fc7:	bf 01 00 00 00       	mov    $0x1,%edi
  400fcc:	b8 00 00 00 00       	mov    $0x0,%eax
  400fd1:	e8 ca fc ff ff       	callq  400ca0 <__printf_chk@plt>
  400fd6:	bf 08 00 00 00       	mov    $0x8,%edi
  400fdb:	e8 f0 fc ff ff       	callq  400cd0 <exit@plt>

0000000000400fe0 <phase_1>:
  400fe0:	48 83 ec 18          	sub    $0x18,%rsp
  400fe4:	64 48 8b 04 25 28 00 	mov    %fs:0x28,%rax
  400feb:	00 00 
  400fed:	48 89 44 24 08       	mov    %rax,0x8(%rsp)
  400ff2:	31 c0                	xor    %eax,%eax
  400ff4:	c7 44 24 04 00 00 00 	movl   $0x0,0x4(%rsp)
  400ffb:	00 
  400ffc:	48 8d 54 24 04       	lea    0x4(%rsp),%rdx
  401001:	be 30 2a 40 00       	mov    $0x402a30,%esi
  401006:	e8 85 fc ff ff       	callq  400c90 <__isoc99_sscanf@plt>
  40100b:	83 f8 01             	cmp    $0x1,%eax
  40100e:	74 05                	je     401015 <phase_1+0x35>
  401010:	e8 b8 07 00 00       	callq  4017cd <explode_bomb>
  401015:	81 7c 24 04 36 03 00 	cmpl   $0x336,0x4(%rsp)
  40101c:	00 
  40101d:	74 05                	je     401024 <phase_1+0x44>
  40101f:	e8 a9 07 00 00       	callq  4017cd <explode_bomb>
  401024:	48 8b 44 24 08       	mov    0x8(%rsp),%rax
  401029:	64 48 33 04 25 28 00 	xor    %fs:0x28,%rax
  401030:	00 00 
  401032:	75 05                	jne    401039 <phase_1+0x59>
  401034:	48 83 c4 18          	add    $0x18,%rsp
  401038:	c3                   	retq   
  401039:	e8 92 fb ff ff       	callq  400bd0 <__stack_chk_fail@plt>

000000000040103e <phase_2>:
  40103e:	48 83 ec 08          	sub    $0x8,%rsp
  401042:	be 80 27 40 00       	mov    $0x402780,%esi
  401047:	e8 a9 04 00 00       	callq  4014f5 <strings_not_equal>
  40104c:	85 c0                	test   %eax,%eax
  40104e:	75 05                	jne    401055 <phase_2+0x17>
  401050:	48 83 c4 08          	add    $0x8,%rsp
  401054:	c3                   	retq   
  401055:	e8 73 07 00 00       	callq  4017cd <explode_bomb>
  40105a:	eb f4                	jmp    401050 <phase_2+0x12>

000000000040105c <phase_3>:
  40105c:	53                   	push   %rbx
  40105d:	48 89 fb             	mov    %rdi,%rbx
  401060:	bf 5f 27 40 00       	mov    $0x40275f,%edi
  401065:	e8 6d 04 00 00       	callq  4014d7 <string_length>
  40106a:	8d 78 01             	lea    0x1(%rax),%edi
  40106d:	48 63 ff             	movslq %edi,%rdi
  401070:	e8 fb fb ff ff       	callq  400c70 <malloc@plt>
  401075:	48 ba 50 75 62 6c 69 	movabs $0x732063696c627550,%rdx
  40107c:	63 20 73 
  40107f:	48 89 10             	mov    %rdx,(%rax)
  401082:	48 b9 70 65 61 6b 69 	movabs $0x20676e696b616570,%rcx
  401089:	6e 67 20 
  40108c:	48 89 48 08          	mov    %rcx,0x8(%rax)
  401090:	48 be 69 73 20 76 65 	movabs $0x2079726576207369,%rsi
  401097:	72 79 20 
  40109a:	48 89 70 10          	mov    %rsi,0x10(%rax)
  40109e:	c7 40 18 65 61 73 79 	movl   $0x79736165,0x18(%rax)
  4010a5:	66 c7 40 1c 2e 00    	movw   $0x2e,0x1c(%rax)
  4010ab:	c6 40 13 63          	movb   $0x63,0x13(%rax)
  4010af:	48 89 c6             	mov    %rax,%rsi
  4010b2:	48 89 df             	mov    %rbx,%rdi
  4010b5:	e8 3b 04 00 00       	callq  4014f5 <strings_not_equal>
  4010ba:	85 c0                	test   %eax,%eax
  4010bc:	75 02                	jne    4010c0 <phase_3+0x64>
  4010be:	5b                   	pop    %rbx
  4010bf:	c3                   	retq   
  4010c0:	e8 08 07 00 00       	callq  4017cd <explode_bomb>
  4010c5:	eb f7                	jmp    4010be <phase_3+0x62>

00000000004010c7 <phase_4>:
  4010c7:	55                   	push   %rbp
  4010c8:	53                   	push   %rbx
  4010c9:	48 83 ec 28          	sub    $0x28,%rsp
  4010cd:	64 48 8b 04 25 28 00 	mov    %fs:0x28,%rax
  4010d4:	00 00 
  4010d6:	48 89 44 24 18       	mov    %rax,0x18(%rsp)
  4010db:	31 c0                	xor    %eax,%eax
  4010dd:	48 89 e6             	mov    %rsp,%rsi
  4010e0:	e8 1e 07 00 00       	callq  401803 <read_six_numbers>
  4010e5:	83 3c 24 00          	cmpl   $0x0,(%rsp)
  4010e9:	78 0a                	js     4010f5 <phase_4+0x2e>
  4010eb:	48 89 e5             	mov    %rsp,%rbp
  4010ee:	bb 13 00 00 00       	mov    $0x13,%ebx
  4010f3:	eb 13                	jmp    401108 <phase_4+0x41>
  4010f5:	e8 d3 06 00 00       	callq  4017cd <explode_bomb>
  4010fa:	eb ef                	jmp    4010eb <phase_4+0x24>
  4010fc:	48 83 c5 04          	add    $0x4,%rbp
  401100:	83 c3 13             	add    $0x13,%ebx
  401103:	83 fb 72             	cmp    $0x72,%ebx
  401106:	74 11                	je     401119 <phase_4+0x52>
  401108:	89 d8                	mov    %ebx,%eax
  40110a:	03 45 00             	add    0x0(%rbp),%eax
  40110d:	39 45 04             	cmp    %eax,0x4(%rbp)
  401110:	74 ea                	je     4010fc <phase_4+0x35>
  401112:	e8 b6 06 00 00       	callq  4017cd <explode_bomb>
  401117:	eb e3                	jmp    4010fc <phase_4+0x35>
  401119:	48 8b 44 24 18       	mov    0x18(%rsp),%rax
  40111e:	64 48 33 04 25 28 00 	xor    %fs:0x28,%rax
  401125:	00 00 
  401127:	75 07                	jne    401130 <phase_4+0x69>
  401129:	48 83 c4 28          	add    $0x28,%rsp
  40112d:	5b                   	pop    %rbx
  40112e:	5d                   	pop    %rbp
  40112f:	c3                   	retq   
  401130:	e8 9b fa ff ff       	callq  400bd0 <__stack_chk_fail@plt>

0000000000401135 <fun5>:
  401135:	48 85 ff             	test   %rdi,%rdi
  401138:	74 32                	je     40116c <fun5+0x37>
  40113a:	48 83 ec 08          	sub    $0x8,%rsp
  40113e:	8b 17                	mov    (%rdi),%edx
  401140:	39 f2                	cmp    %esi,%edx
  401142:	7f 1b                	jg     40115f <fun5+0x2a>
  401144:	b8 00 00 00 00       	mov    $0x0,%eax
  401149:	39 f2                	cmp    %esi,%edx
  40114b:	74 0d                	je     40115a <fun5+0x25>
  40114d:	48 8b 7f 10          	mov    0x10(%rdi),%rdi
  401151:	e8 df ff ff ff       	callq  401135 <fun5>
  401156:	8d 44 00 01          	lea    0x1(%rax,%rax,1),%eax
  40115a:	48 83 c4 08          	add    $0x8,%rsp
  40115e:	c3                   	retq   
  40115f:	48 8b 7f 08          	mov    0x8(%rdi),%rdi
  401163:	e8 cd ff ff ff       	callq  401135 <fun5>
  401168:	01 c0                	add    %eax,%eax
  40116a:	eb ee                	jmp    40115a <fun5+0x25>
  40116c:	b8 ff ff ff ff       	mov    $0xffffffff,%eax
  401171:	c3                   	retq   

0000000000401172 <phase_5>:
  401172:	53                   	push   %rbx
  401173:	ba 0a 00 00 00       	mov    $0xa,%edx
  401178:	be 00 00 00 00       	mov    $0x0,%esi
  40117d:	e8 de fa ff ff       	callq  400c60 <strtol@plt>
  401182:	48 89 c3             	mov    %rax,%rbx
  401185:	8d 40 ff             	lea    -0x1(%rax),%eax
  401188:	3d ec 03 00 00       	cmp    $0x3ec,%eax
  40118d:	77 18                	ja     4011a7 <phase_5+0x35>
  40118f:	89 de                	mov    %ebx,%esi
  401191:	bf 80 41 60 00       	mov    $0x604180,%edi
  401196:	e8 9a ff ff ff       	callq  401135 <fun5>
  40119b:	83 f8 05             	cmp    $0x5,%eax
  40119e:	74 05                	je     4011a5 <phase_5+0x33>
  4011a0:	e8 28 06 00 00       	callq  4017cd <explode_bomb>
  4011a5:	5b                   	pop    %rbx
  4011a6:	c3                   	retq   
  4011a7:	e8 21 06 00 00       	callq  4017cd <explode_bomb>
  4011ac:	eb e1                	jmp    40118f <phase_5+0x1d>

00000000004011ae <phase_6>:
  4011ae:	41 55                	push   %r13
  4011b0:	41 54                	push   %r12
  4011b2:	55                   	push   %rbp
  4011b3:	53                   	push   %rbx
  4011b4:	48 83 ec 68          	sub    $0x68,%rsp
  4011b8:	64 48 8b 04 25 28 00 	mov    %fs:0x28,%rax
  4011bf:	00 00 
  4011c1:	48 89 44 24 58       	mov    %rax,0x58(%rsp)
  4011c6:	31 c0                	xor    %eax,%eax
  4011c8:	48 89 e6             	mov    %rsp,%rsi
  4011cb:	e8 33 06 00 00       	callq  401803 <read_six_numbers>
  4011d0:	49 89 e4             	mov    %rsp,%r12
  4011d3:	41 bd 00 00 00 00    	mov    $0x0,%r13d
  4011d9:	eb 24                	jmp    4011ff <phase_6+0x51>
  4011db:	41 83 c5 01          	add    $0x1,%r13d
  4011df:	41 83 fd 06          	cmp    $0x6,%r13d
  4011e3:	74 37                	je     40121c <phase_6+0x6e>
  4011e5:	44 89 eb             	mov    %r13d,%ebx
  4011e8:	48 63 c3             	movslq %ebx,%rax
  4011eb:	8b 04 84             	mov    (%rsp,%rax,4),%eax
  4011ee:	39 45 00             	cmp    %eax,0x0(%rbp)
  4011f1:	74 22                	je     401215 <phase_6+0x67>
  4011f3:	83 c3 01             	add    $0x1,%ebx
  4011f6:	83 fb 05             	cmp    $0x5,%ebx
  4011f9:	7e ed                	jle    4011e8 <phase_6+0x3a>
  4011fb:	49 83 c4 04          	add    $0x4,%r12
  4011ff:	4c 89 e5             	mov    %r12,%rbp
  401202:	41 8b 04 24          	mov    (%r12),%eax
  401206:	83 e8 01             	sub    $0x1,%eax
  401209:	83 f8 05             	cmp    $0x5,%eax
  40120c:	76 cd                	jbe    4011db <phase_6+0x2d>
  40120e:	e8 ba 05 00 00       	callq  4017cd <explode_bomb>
  401213:	eb c6                	jmp    4011db <phase_6+0x2d>
  401215:	e8 b3 05 00 00       	callq  4017cd <explode_bomb>
  40121a:	eb d7                	jmp    4011f3 <phase_6+0x45>
  40121c:	be 00 00 00 00       	mov    $0x0,%esi
  401221:	8b 0c 34             	mov    (%rsp,%rsi,1),%ecx
  401224:	b8 01 00 00 00       	mov    $0x1,%eax
  401229:	ba 20 41 60 00       	mov    $0x604120,%edx
  40122e:	83 f9 01             	cmp    $0x1,%ecx
  401231:	7e 0b                	jle    40123e <phase_6+0x90>
  401233:	48 8b 52 08          	mov    0x8(%rdx),%rdx
  401237:	83 c0 01             	add    $0x1,%eax
  40123a:	39 c8                	cmp    %ecx,%eax
  40123c:	75 f5                	jne    401233 <phase_6+0x85>
  40123e:	48 89 54 74 20       	mov    %rdx,0x20(%rsp,%rsi,2)
  401243:	48 83 c6 04          	add    $0x4,%rsi
  401247:	48 83 fe 18          	cmp    $0x18,%rsi
  40124b:	75 d4                	jne    401221 <phase_6+0x73>
  40124d:	48 8b 5c 24 20       	mov    0x20(%rsp),%rbx
  401252:	48 8d 44 24 20       	lea    0x20(%rsp),%rax
  401257:	48 8d 74 24 48       	lea    0x48(%rsp),%rsi
  40125c:	48 89 d9             	mov    %rbx,%rcx
  40125f:	48 8b 50 08          	mov    0x8(%rax),%rdx
  401263:	48 89 51 08          	mov    %rdx,0x8(%rcx)
  401267:	48 83 c0 08          	add    $0x8,%rax
  40126b:	48 89 d1             	mov    %rdx,%rcx
  40126e:	48 39 c6             	cmp    %rax,%rsi
  401271:	75 ec                	jne    40125f <phase_6+0xb1>
  401273:	48 c7 42 08 00 00 00 	movq   $0x0,0x8(%rdx)
  40127a:	00 
  40127b:	bd 05 00 00 00       	mov    $0x5,%ebp
  401280:	eb 09                	jmp    40128b <phase_6+0xdd>
  401282:	48 8b 5b 08          	mov    0x8(%rbx),%rbx
  401286:	83 ed 01             	sub    $0x1,%ebp
  401289:	74 11                	je     40129c <phase_6+0xee>
  40128b:	48 8b 43 08          	mov    0x8(%rbx),%rax
  40128f:	8b 00                	mov    (%rax),%eax
  401291:	39 03                	cmp    %eax,(%rbx)
  401293:	7e ed                	jle    401282 <phase_6+0xd4>
  401295:	e8 33 05 00 00       	callq  4017cd <explode_bomb>
  40129a:	eb e6                	jmp    401282 <phase_6+0xd4>
  40129c:	48 8b 44 24 58       	mov    0x58(%rsp),%rax
  4012a1:	64 48 33 04 25 28 00 	xor    %fs:0x28,%rax
  4012a8:	00 00 
  4012aa:	75 0b                	jne    4012b7 <phase_6+0x109>
  4012ac:	48 83 c4 68          	add    $0x68,%rsp
  4012b0:	5b                   	pop    %rbx
  4012b1:	5d                   	pop    %rbp
  4012b2:	41 5c                	pop    %r12
  4012b4:	41 5d                	pop    %r13
  4012b6:	c3                   	retq   
  4012b7:	e8 14 f9 ff ff       	callq  400bd0 <__stack_chk_fail@plt>

00000000004012bc <phase_7>:
  4012bc:	48 83 ec 18          	sub    $0x18,%rsp
  4012c0:	64 48 8b 04 25 28 00 	mov    %fs:0x28,%rax
  4012c7:	00 00 
  4012c9:	48 89 44 24 08       	mov    %rax,0x8(%rsp)
  4012ce:	31 c0                	xor    %eax,%eax
  4012d0:	48 8d 4c 24 04       	lea    0x4(%rsp),%rcx
  4012d5:	48 89 e2             	mov    %rsp,%rdx
  4012d8:	be 2d 2a 40 00       	mov    $0x402a2d,%esi
  4012dd:	e8 ae f9 ff ff       	callq  400c90 <__isoc99_sscanf@plt>
  4012e2:	83 f8 01             	cmp    $0x1,%eax
  4012e5:	7e 10                	jle    4012f7 <phase_7+0x3b>
  4012e7:	83 3c 24 07          	cmpl   $0x7,(%rsp)
  4012eb:	77 42                	ja     40132f <phase_7+0x73>
  4012ed:	8b 04 24             	mov    (%rsp),%eax
  4012f0:	ff 24 c5 c0 27 40 00 	jmpq   *0x4027c0(,%rax,8)
  4012f7:	e8 d1 04 00 00       	callq  4017cd <explode_bomb>
  4012fc:	eb e9                	jmp    4012e7 <phase_7+0x2b>
  4012fe:	b8 0b 02 00 00       	mov    $0x20b,%eax
  401303:	eb 3b                	jmp    401340 <phase_7+0x84>
  401305:	b8 07 02 00 00       	mov    $0x207,%eax
  40130a:	eb 34                	jmp    401340 <phase_7+0x84>
  40130c:	b8 60 02 00 00       	mov    $0x260,%eax
  401311:	eb 2d                	jmp    401340 <phase_7+0x84>
  401313:	b8 51 01 00 00       	mov    $0x151,%eax
  401318:	eb 26                	jmp    401340 <phase_7+0x84>
  40131a:	b8 09 03 00 00       	mov    $0x309,%eax
  40131f:	eb 1f                	jmp    401340 <phase_7+0x84>
  401321:	b8 3f 02 00 00       	mov    $0x23f,%eax
  401326:	eb 18                	jmp    401340 <phase_7+0x84>
  401328:	b8 fb 00 00 00       	mov    $0xfb,%eax
  40132d:	eb 11                	jmp    401340 <phase_7+0x84>
  40132f:	e8 99 04 00 00       	callq  4017cd <explode_bomb>
  401334:	b8 00 00 00 00       	mov    $0x0,%eax
  401339:	eb 05                	jmp    401340 <phase_7+0x84>
  40133b:	b8 85 00 00 00       	mov    $0x85,%eax
  401340:	3b 44 24 04          	cmp    0x4(%rsp),%eax
  401344:	74 05                	je     40134b <phase_7+0x8f>
  401346:	e8 82 04 00 00       	callq  4017cd <explode_bomb>
  40134b:	48 8b 44 24 08       	mov    0x8(%rsp),%rax
  401350:	64 48 33 04 25 28 00 	xor    %fs:0x28,%rax
  401357:	00 00 
  401359:	75 05                	jne    401360 <phase_7+0xa4>
  40135b:	48 83 c4 18          	add    $0x18,%rsp
  40135f:	c3                   	retq   
  401360:	e8 6b f8 ff ff       	callq  400bd0 <__stack_chk_fail@plt>

0000000000401365 <phase_8>:
  401365:	53                   	push   %rbx
  401366:	48 89 fb             	mov    %rdi,%rbx
  401369:	e8 69 01 00 00       	callq  4014d7 <string_length>
  40136e:	83 f8 06             	cmp    $0x6,%eax
  401371:	74 05                	je     401378 <phase_8+0x13>
  401373:	e8 55 04 00 00       	callq  4017cd <explode_bomb>
  401378:	48 89 d8             	mov    %rbx,%rax
  40137b:	48 8d 7b 06          	lea    0x6(%rbx),%rdi
  40137f:	b9 00 00 00 00       	mov    $0x0,%ecx
  401384:	0f b6 10             	movzbl (%rax),%edx
  401387:	83 e2 0f             	and    $0xf,%edx
  40138a:	03 0c 95 00 28 40 00 	add    0x402800(,%rdx,4),%ecx
  401391:	48 83 c0 01          	add    $0x1,%rax
  401395:	48 39 f8             	cmp    %rdi,%rax
  401398:	75 ea                	jne    401384 <phase_8+0x1f>
  40139a:	83 f9 38             	cmp    $0x38,%ecx
  40139d:	74 05                	je     4013a4 <phase_8+0x3f>
  40139f:	e8 29 04 00 00       	callq  4017cd <explode_bomb>
  4013a4:	5b                   	pop    %rbx
  4013a5:	c3                   	retq   

00000000004013a6 <fun9>:
  4013a6:	48 83 ec 08          	sub    $0x8,%rsp
  4013aa:	89 d0                	mov    %edx,%eax
  4013ac:	29 f0                	sub    %esi,%eax
  4013ae:	89 c1                	mov    %eax,%ecx
  4013b0:	c1 e9 1f             	shr    $0x1f,%ecx
  4013b3:	01 c1                	add    %eax,%ecx
  4013b5:	d1 f9                	sar    %ecx
  4013b7:	01 f1                	add    %esi,%ecx
  4013b9:	39 f9                	cmp    %edi,%ecx
  4013bb:	7f 0e                	jg     4013cb <fun9+0x25>
  4013bd:	b8 00 00 00 00       	mov    $0x0,%eax
  4013c2:	39 f9                	cmp    %edi,%ecx
  4013c4:	7c 11                	jl     4013d7 <fun9+0x31>
  4013c6:	48 83 c4 08          	add    $0x8,%rsp
  4013ca:	c3                   	retq   
  4013cb:	8d 51 ff             	lea    -0x1(%rcx),%edx
  4013ce:	e8 d3 ff ff ff       	callq  4013a6 <fun9>
  4013d3:	01 c0                	add    %eax,%eax
  4013d5:	eb ef                	jmp    4013c6 <fun9+0x20>
  4013d7:	8d 71 01             	lea    0x1(%rcx),%esi
  4013da:	e8 c7 ff ff ff       	callq  4013a6 <fun9>
  4013df:	8d 44 00 01          	lea    0x1(%rax,%rax,1),%eax
  4013e3:	eb e1                	jmp    4013c6 <fun9+0x20>

00000000004013e5 <phase_9>:
  4013e5:	48 83 ec 18          	sub    $0x18,%rsp
  4013e9:	64 48 8b 04 25 28 00 	mov    %fs:0x28,%rax
  4013f0:	00 00 
  4013f2:	48 89 44 24 08       	mov    %rax,0x8(%rsp)
  4013f7:	31 c0                	xor    %eax,%eax
  4013f9:	48 8d 4c 24 04       	lea    0x4(%rsp),%rcx
  4013fe:	48 89 e2             	mov    %rsp,%rdx
  401401:	be 2d 2a 40 00       	mov    $0x402a2d,%esi
  401406:	e8 85 f8 ff ff       	callq  400c90 <__isoc99_sscanf@plt>
  40140b:	83 f8 02             	cmp    $0x2,%eax
  40140e:	74 36                	je     401446 <phase_9+0x61>
  401410:	e8 b8 03 00 00       	callq  4017cd <explode_bomb>
  401415:	ba 0e 00 00 00       	mov    $0xe,%edx
  40141a:	be 00 00 00 00       	mov    $0x0,%esi
  40141f:	8b 3c 24             	mov    (%rsp),%edi
  401422:	e8 7f ff ff ff       	callq  4013a6 <fun9>
  401427:	83 f8 07             	cmp    $0x7,%eax
  40142a:	74 22                	je     40144e <phase_9+0x69>
  40142c:	e8 9c 03 00 00       	callq  4017cd <explode_bomb>
  401431:	48 8b 44 24 08       	mov    0x8(%rsp),%rax
  401436:	64 48 33 04 25 28 00 	xor    %fs:0x28,%rax
  40143d:	00 00 
  40143f:	75 16                	jne    401457 <phase_9+0x72>
  401441:	48 83 c4 18          	add    $0x18,%rsp
  401445:	c3                   	retq   
  401446:	83 3c 24 0e          	cmpl   $0xe,(%rsp)
  40144a:	76 c9                	jbe    401415 <phase_9+0x30>
  40144c:	eb c2                	jmp    401410 <phase_9+0x2b>
  40144e:	83 7c 24 04 07       	cmpl   $0x7,0x4(%rsp)
  401453:	75 d7                	jne    40142c <phase_9+0x47>
  401455:	eb da                	jmp    401431 <phase_9+0x4c>
  401457:	e8 74 f7 ff ff       	callq  400bd0 <__stack_chk_fail@plt>

000000000040145c <sig_handler>:
  40145c:	48 83 ec 08          	sub    $0x8,%rsp
  401460:	bf 40 28 40 00       	mov    $0x402840,%edi
  401465:	e8 46 f7 ff ff       	callq  400bb0 <puts@plt>
  40146a:	bf 03 00 00 00       	mov    $0x3,%edi
  40146f:	e8 8c f8 ff ff       	callq  400d00 <sleep@plt>
  401474:	be a9 29 40 00       	mov    $0x4029a9,%esi
  401479:	bf 01 00 00 00       	mov    $0x1,%edi
  40147e:	b8 00 00 00 00       	mov    $0x0,%eax
  401483:	e8 18 f8 ff ff       	callq  400ca0 <__printf_chk@plt>
  401488:	48 8b 3d f1 36 20 00 	mov    0x2036f1(%rip),%rdi        # 604b80 <stdout@@GLIBC_2.2.5>
  40148f:	e8 ec f7 ff ff       	callq  400c80 <fflush@plt>
  401494:	bf 01 00 00 00       	mov    $0x1,%edi
  401499:	e8 62 f8 ff ff       	callq  400d00 <sleep@plt>
  40149e:	bf b1 29 40 00       	mov    $0x4029b1,%edi
  4014a3:	e8 08 f7 ff ff       	callq  400bb0 <puts@plt>
  4014a8:	bf 10 00 00 00       	mov    $0x10,%edi
  4014ad:	e8 1e f8 ff ff       	callq  400cd0 <exit@plt>

00000000004014b2 <invalid_phase>:
  4014b2:	48 83 ec 08          	sub    $0x8,%rsp
  4014b6:	48 89 fa             	mov    %rdi,%rdx
  4014b9:	be b9 29 40 00       	mov    $0x4029b9,%esi
  4014be:	bf 01 00 00 00       	mov    $0x1,%edi
  4014c3:	b8 00 00 00 00       	mov    $0x0,%eax
  4014c8:	e8 d3 f7 ff ff       	callq  400ca0 <__printf_chk@plt>
  4014cd:	bf 08 00 00 00       	mov    $0x8,%edi
  4014d2:	e8 f9 f7 ff ff       	callq  400cd0 <exit@plt>

00000000004014d7 <string_length>:
  4014d7:	80 3f 00             	cmpb   $0x0,(%rdi)
  4014da:	74 13                	je     4014ef <string_length+0x18>
  4014dc:	b8 00 00 00 00       	mov    $0x0,%eax
  4014e1:	48 83 c7 01          	add    $0x1,%rdi
  4014e5:	83 c0 01             	add    $0x1,%eax
  4014e8:	80 3f 00             	cmpb   $0x0,(%rdi)
  4014eb:	75 f4                	jne    4014e1 <string_length+0xa>
  4014ed:	f3 c3                	repz retq 
  4014ef:	b8 00 00 00 00       	mov    $0x0,%eax
  4014f4:	c3                   	retq   

00000000004014f5 <strings_not_equal>:
  4014f5:	41 54                	push   %r12
  4014f7:	55                   	push   %rbp
  4014f8:	53                   	push   %rbx
  4014f9:	48 89 fb             	mov    %rdi,%rbx
  4014fc:	48 89 f5             	mov    %rsi,%rbp
  4014ff:	e8 d3 ff ff ff       	callq  4014d7 <string_length>
  401504:	41 89 c4             	mov    %eax,%r12d
  401507:	48 89 ef             	mov    %rbp,%rdi
  40150a:	e8 c8 ff ff ff       	callq  4014d7 <string_length>
  40150f:	ba 01 00 00 00       	mov    $0x1,%edx
  401514:	41 39 c4             	cmp    %eax,%r12d
  401517:	74 07                	je     401520 <strings_not_equal+0x2b>
  401519:	89 d0                	mov    %edx,%eax
  40151b:	5b                   	pop    %rbx
  40151c:	5d                   	pop    %rbp
  40151d:	41 5c                	pop    %r12
  40151f:	c3                   	retq   
  401520:	0f b6 03             	movzbl (%rbx),%eax
  401523:	84 c0                	test   %al,%al
  401525:	74 27                	je     40154e <strings_not_equal+0x59>
  401527:	3a 45 00             	cmp    0x0(%rbp),%al
  40152a:	75 29                	jne    401555 <strings_not_equal+0x60>
  40152c:	48 83 c3 01          	add    $0x1,%rbx
  401530:	48 83 c5 01          	add    $0x1,%rbp
  401534:	0f b6 03             	movzbl (%rbx),%eax
  401537:	84 c0                	test   %al,%al
  401539:	74 0c                	je     401547 <strings_not_equal+0x52>
  40153b:	3a 45 00             	cmp    0x0(%rbp),%al
  40153e:	74 ec                	je     40152c <strings_not_equal+0x37>
  401540:	ba 01 00 00 00       	mov    $0x1,%edx
  401545:	eb d2                	jmp    401519 <strings_not_equal+0x24>
  401547:	ba 00 00 00 00       	mov    $0x0,%edx
  40154c:	eb cb                	jmp    401519 <strings_not_equal+0x24>
  40154e:	ba 00 00 00 00       	mov    $0x0,%edx
  401553:	eb c4                	jmp    401519 <strings_not_equal+0x24>
  401555:	ba 01 00 00 00       	mov    $0x1,%edx
  40155a:	eb bd                	jmp    401519 <strings_not_equal+0x24>

000000000040155c <initialize_bomb>:
  40155c:	53                   	push   %rbx
  40155d:	48 81 ec 50 20 00 00 	sub    $0x2050,%rsp
  401564:	64 48 8b 04 25 28 00 	mov    %fs:0x28,%rax
  40156b:	00 00 
  40156d:	48 89 84 24 48 20 00 	mov    %rax,0x2048(%rsp)
  401574:	00 
  401575:	31 c0                	xor    %eax,%eax
  401577:	be 5c 14 40 00       	mov    $0x40145c,%esi
  40157c:	bf 02 00 00 00       	mov    $0x2,%edi
  401581:	e8 aa f6 ff ff       	callq  400c30 <signal@plt>
  401586:	be 40 00 00 00       	mov    $0x40,%esi
  40158b:	48 89 e7             	mov    %rsp,%rdi
  40158e:	e8 2d f7 ff ff       	callq  400cc0 <gethostname@plt>
  401593:	85 c0                	test   %eax,%eax
  401595:	75 46                	jne    4015dd <initialize_bomb+0x81>
  401597:	48 8b 3d e2 31 20 00 	mov    0x2031e2(%rip),%rdi        # 604780 <host_table>
  40159e:	bb 88 47 60 00       	mov    $0x604788,%ebx
  4015a3:	48 85 ff             	test   %rdi,%rdi
  4015a6:	74 19                	je     4015c1 <initialize_bomb+0x65>
  4015a8:	48 89 e6             	mov    %rsp,%rsi
  4015ab:	e8 d0 f5 ff ff       	callq  400b80 <strcasecmp@plt>
  4015b0:	85 c0                	test   %eax,%eax
  4015b2:	74 60                	je     401614 <initialize_bomb+0xb8>
  4015b4:	48 83 c3 08          	add    $0x8,%rbx
  4015b8:	48 8b 7b f8          	mov    -0x8(%rbx),%rdi
  4015bc:	48 85 ff             	test   %rdi,%rdi
  4015bf:	75 e7                	jne    4015a8 <initialize_bomb+0x4c>
  4015c1:	bf b0 28 40 00       	mov    $0x4028b0,%edi
  4015c6:	e8 e5 f5 ff ff       	callq  400bb0 <puts@plt>
  4015cb:	48 89 e7             	mov    %rsp,%rdi
  4015ce:	e8 dd f5 ff ff       	callq  400bb0 <puts@plt>
  4015d3:	bf 08 00 00 00       	mov    $0x8,%edi
  4015d8:	e8 f3 f6 ff ff       	callq  400cd0 <exit@plt>
  4015dd:	bf 78 28 40 00       	mov    $0x402878,%edi
  4015e2:	e8 c9 f5 ff ff       	callq  400bb0 <puts@plt>
  4015e7:	bf 08 00 00 00       	mov    $0x8,%edi
  4015ec:	e8 df f6 ff ff       	callq  400cd0 <exit@plt>
  4015f1:	48 8d 54 24 40       	lea    0x40(%rsp),%rdx
  4015f6:	be ca 29 40 00       	mov    $0x4029ca,%esi
  4015fb:	bf 01 00 00 00       	mov    $0x1,%edi
  401600:	b8 00 00 00 00       	mov    $0x0,%eax
  401605:	e8 96 f6 ff ff       	callq  400ca0 <__printf_chk@plt>
  40160a:	bf 08 00 00 00       	mov    $0x8,%edi
  40160f:	e8 bc f6 ff ff       	callq  400cd0 <exit@plt>
  401614:	48 8d 7c 24 40       	lea    0x40(%rsp),%rdi
  401619:	e8 cb 0c 00 00       	callq  4022e9 <init_driver>
  40161e:	85 c0                	test   %eax,%eax
  401620:	78 cf                	js     4015f1 <initialize_bomb+0x95>
  401622:	48 8b 84 24 48 20 00 	mov    0x2048(%rsp),%rax
  401629:	00 
  40162a:	64 48 33 04 25 28 00 	xor    %fs:0x28,%rax
  401631:	00 00 
  401633:	75 09                	jne    40163e <initialize_bomb+0xe2>
  401635:	48 81 c4 50 20 00 00 	add    $0x2050,%rsp
  40163c:	5b                   	pop    %rbx
  40163d:	c3                   	retq   
  40163e:	e8 8d f5 ff ff       	callq  400bd0 <__stack_chk_fail@plt>

0000000000401643 <initialize_bomb_solve>:
  401643:	f3 c3                	repz retq 

0000000000401645 <blank_line>:
  401645:	55                   	push   %rbp
  401646:	53                   	push   %rbx
  401647:	48 83 ec 08          	sub    $0x8,%rsp
  40164b:	48 89 fd             	mov    %rdi,%rbp
  40164e:	0f b6 5d 00          	movzbl 0x0(%rbp),%ebx
  401652:	84 db                	test   %bl,%bl
  401654:	74 1e                	je     401674 <blank_line+0x2f>
  401656:	e8 b5 f6 ff ff       	callq  400d10 <__ctype_b_loc@plt>
  40165b:	48 83 c5 01          	add    $0x1,%rbp
  40165f:	48 0f be db          	movsbq %bl,%rbx
  401663:	48 8b 00             	mov    (%rax),%rax
  401666:	f6 44 58 01 20       	testb  $0x20,0x1(%rax,%rbx,2)
  40166b:	75 e1                	jne    40164e <blank_line+0x9>
  40166d:	b8 00 00 00 00       	mov    $0x0,%eax
  401672:	eb 05                	jmp    401679 <blank_line+0x34>
  401674:	b8 01 00 00 00       	mov    $0x1,%eax
  401679:	48 83 c4 08          	add    $0x8,%rsp
  40167d:	5b                   	pop    %rbx
  40167e:	5d                   	pop    %rbp
  40167f:	c3                   	retq   

0000000000401680 <skip>:
  401680:	53                   	push   %rbx
  401681:	48 63 05 24 35 20 00 	movslq 0x203524(%rip),%rax        # 604bac <num_input_strings>
  401688:	48 8d 3c 80          	lea    (%rax,%rax,4),%rdi
  40168c:	48 c1 e7 04          	shl    $0x4,%rdi
  401690:	48 81 c7 c0 4b 60 00 	add    $0x604bc0,%rdi
  401697:	48 8b 15 12 35 20 00 	mov    0x203512(%rip),%rdx        # 604bb0 <infile>
  40169e:	be 50 00 00 00       	mov    $0x50,%esi
  4016a3:	e8 78 f5 ff ff       	callq  400c20 <fgets@plt>
  4016a8:	48 89 c3             	mov    %rax,%rbx
  4016ab:	48 85 c0             	test   %rax,%rax
  4016ae:	74 0c                	je     4016bc <skip+0x3c>
  4016b0:	48 89 c7             	mov    %rax,%rdi
  4016b3:	e8 8d ff ff ff       	callq  401645 <blank_line>
  4016b8:	85 c0                	test   %eax,%eax
  4016ba:	75 c5                	jne    401681 <skip+0x1>
  4016bc:	48 89 d8             	mov    %rbx,%rax
  4016bf:	5b                   	pop    %rbx
  4016c0:	c3                   	retq   

00000000004016c1 <send_msg>:
  4016c1:	48 81 ec 18 40 00 00 	sub    $0x4018,%rsp
  4016c8:	41 89 f8             	mov    %edi,%r8d
  4016cb:	64 48 8b 04 25 28 00 	mov    %fs:0x28,%rax
  4016d2:	00 00 
  4016d4:	48 89 84 24 08 40 00 	mov    %rax,0x4008(%rsp)
  4016db:	00 
  4016dc:	31 c0                	xor    %eax,%eax
  4016de:	8b 35 c8 34 20 00    	mov    0x2034c8(%rip),%esi        # 604bac <num_input_strings>
  4016e4:	8d 46 ff             	lea    -0x1(%rsi),%eax
  4016e7:	48 98                	cltq   
  4016e9:	48 8d 14 80          	lea    (%rax,%rax,4),%rdx
  4016ed:	48 c1 e2 04          	shl    $0x4,%rdx
  4016f1:	48 81 c2 c0 4b 60 00 	add    $0x604bc0,%rdx
  4016f8:	b8 00 00 00 00       	mov    $0x0,%eax
  4016fd:	48 c7 c1 ff ff ff ff 	mov    $0xffffffffffffffff,%rcx
  401704:	48 89 d7             	mov    %rdx,%rdi
  401707:	f2 ae                	repnz scas %es:(%rdi),%al
  401709:	48 89 c8             	mov    %rcx,%rax
  40170c:	48 f7 d0             	not    %rax
  40170f:	48 83 c0 63          	add    $0x63,%rax
  401713:	48 3d 00 20 00 00    	cmp    $0x2000,%rax
  401719:	77 78                	ja     401793 <send_msg+0xd2>
  40171b:	45 85 c0             	test   %r8d,%r8d
  40171e:	b8 ec 29 40 00       	mov    $0x4029ec,%eax
  401723:	41 b9 e4 29 40 00    	mov    $0x4029e4,%r9d
  401729:	4c 0f 44 c8          	cmove  %rax,%r9
  40172d:	52                   	push   %rdx
  40172e:	56                   	push   %rsi
  40172f:	44 8b 05 2a 30 20 00 	mov    0x20302a(%rip),%r8d        # 604760 <bomb_id>
  401736:	b9 f5 29 40 00       	mov    $0x4029f5,%ecx
  40173b:	ba 00 20 00 00       	mov    $0x2000,%edx
  401740:	be 01 00 00 00       	mov    $0x1,%esi
  401745:	48 8d 7c 24 10       	lea    0x10(%rsp),%rdi
  40174a:	b8 00 00 00 00       	mov    $0x0,%eax
  40174f:	e8 cc f5 ff ff       	callq  400d20 <__sprintf_chk@plt>
  401754:	48 8d 8c 24 10 20 00 	lea    0x2010(%rsp),%rcx
  40175b:	00 
  40175c:	ba 00 00 00 00       	mov    $0x0,%edx
  401761:	48 8d 74 24 10       	lea    0x10(%rsp),%rsi
  401766:	bf 60 43 60 00       	mov    $0x604360,%edi
  40176b:	e8 5e 0d 00 00       	callq  4024ce <driver_post>
  401770:	48 83 c4 10          	add    $0x10,%rsp
  401774:	85 c0                	test   %eax,%eax
  401776:	78 39                	js     4017b1 <send_msg+0xf0>
  401778:	48 8b 84 24 08 40 00 	mov    0x4008(%rsp),%rax
  40177f:	00 
  401780:	64 48 33 04 25 28 00 	xor    %fs:0x28,%rax
  401787:	00 00 
  401789:	75 3d                	jne    4017c8 <send_msg+0x107>
  40178b:	48 81 c4 18 40 00 00 	add    $0x4018,%rsp
  401792:	c3                   	retq   
  401793:	be e8 28 40 00       	mov    $0x4028e8,%esi
  401798:	bf 01 00 00 00       	mov    $0x1,%edi
  40179d:	b8 00 00 00 00       	mov    $0x0,%eax
  4017a2:	e8 f9 f4 ff ff       	callq  400ca0 <__printf_chk@plt>
  4017a7:	bf 08 00 00 00       	mov    $0x8,%edi
  4017ac:	e8 1f f5 ff ff       	callq  400cd0 <exit@plt>
  4017b1:	48 8d bc 24 00 20 00 	lea    0x2000(%rsp),%rdi
  4017b8:	00 
  4017b9:	e8 f2 f3 ff ff       	callq  400bb0 <puts@plt>
  4017be:	bf 00 00 00 00       	mov    $0x0,%edi
  4017c3:	e8 08 f5 ff ff       	callq  400cd0 <exit@plt>
  4017c8:	e8 03 f4 ff ff       	callq  400bd0 <__stack_chk_fail@plt>

00000000004017cd <explode_bomb>:
  4017cd:	48 83 ec 08          	sub    $0x8,%rsp
  4017d1:	bf 01 2a 40 00       	mov    $0x402a01,%edi
  4017d6:	e8 d5 f3 ff ff       	callq  400bb0 <puts@plt>
  4017db:	bf 0a 2a 40 00       	mov    $0x402a0a,%edi
  4017e0:	e8 cb f3 ff ff       	callq  400bb0 <puts@plt>
  4017e5:	bf 00 00 00 00       	mov    $0x0,%edi
  4017ea:	e8 d2 fe ff ff       	callq  4016c1 <send_msg>
  4017ef:	bf 10 29 40 00       	mov    $0x402910,%edi
  4017f4:	e8 b7 f3 ff ff       	callq  400bb0 <puts@plt>
  4017f9:	bf 08 00 00 00       	mov    $0x8,%edi
  4017fe:	e8 cd f4 ff ff       	callq  400cd0 <exit@plt>

0000000000401803 <read_six_numbers>:
  401803:	48 83 ec 08          	sub    $0x8,%rsp
  401807:	48 89 f2             	mov    %rsi,%rdx
  40180a:	48 8d 4e 04          	lea    0x4(%rsi),%rcx
  40180e:	48 8d 46 14          	lea    0x14(%rsi),%rax
  401812:	50                   	push   %rax
  401813:	48 8d 46 10          	lea    0x10(%rsi),%rax
  401817:	50                   	push   %rax
  401818:	4c 8d 4e 0c          	lea    0xc(%rsi),%r9
  40181c:	4c 8d 46 08          	lea    0x8(%rsi),%r8
  401820:	be 21 2a 40 00       	mov    $0x402a21,%esi
  401825:	b8 00 00 00 00       	mov    $0x0,%eax
  40182a:	e8 61 f4 ff ff       	callq  400c90 <__isoc99_sscanf@plt>
  40182f:	48 83 c4 10          	add    $0x10,%rsp
  401833:	83 f8 05             	cmp    $0x5,%eax
  401836:	7e 05                	jle    40183d <read_six_numbers+0x3a>
  401838:	48 83 c4 08          	add    $0x8,%rsp
  40183c:	c3                   	retq   
  40183d:	e8 8b ff ff ff       	callq  4017cd <explode_bomb>

0000000000401842 <read_line>:
  401842:	48 83 ec 08          	sub    $0x8,%rsp
  401846:	b8 00 00 00 00       	mov    $0x0,%eax
  40184b:	e8 30 fe ff ff       	callq  401680 <skip>
  401850:	48 85 c0             	test   %rax,%rax
  401853:	74 63                	je     4018b8 <read_line+0x76>
  401855:	8b 35 51 33 20 00    	mov    0x203351(%rip),%esi        # 604bac <num_input_strings>
  40185b:	48 63 c6             	movslq %esi,%rax
  40185e:	48 8d 14 80          	lea    (%rax,%rax,4),%rdx
  401862:	48 c1 e2 04          	shl    $0x4,%rdx
  401866:	48 81 c2 c0 4b 60 00 	add    $0x604bc0,%rdx
  40186d:	b8 00 00 00 00       	mov    $0x0,%eax
  401872:	48 c7 c1 ff ff ff ff 	mov    $0xffffffffffffffff,%rcx
  401879:	48 89 d7             	mov    %rdx,%rdi
  40187c:	f2 ae                	repnz scas %es:(%rdi),%al
  40187e:	48 f7 d1             	not    %rcx
  401881:	48 83 e9 01          	sub    $0x1,%rcx
  401885:	83 f9 4e             	cmp    $0x4e,%ecx
  401888:	0f 8f 9c 00 00 00    	jg     40192a <read_line+0xe8>
  40188e:	83 e9 01             	sub    $0x1,%ecx
  401891:	48 63 c9             	movslq %ecx,%rcx
  401894:	48 63 c6             	movslq %esi,%rax
  401897:	48 8d 04 80          	lea    (%rax,%rax,4),%rax
  40189b:	48 c1 e0 04          	shl    $0x4,%rax
  40189f:	c6 84 01 c0 4b 60 00 	movb   $0x0,0x604bc0(%rcx,%rax,1)
  4018a6:	00 
  4018a7:	8d 46 01             	lea    0x1(%rsi),%eax
  4018aa:	89 05 fc 32 20 00    	mov    %eax,0x2032fc(%rip)        # 604bac <num_input_strings>
  4018b0:	48 89 d0             	mov    %rdx,%rax
  4018b3:	48 83 c4 08          	add    $0x8,%rsp
  4018b7:	c3                   	retq   
  4018b8:	48 8b 05 d1 32 20 00 	mov    0x2032d1(%rip),%rax        # 604b90 <stdin@@GLIBC_2.2.5>
  4018bf:	48 39 05 ea 32 20 00 	cmp    %rax,0x2032ea(%rip)        # 604bb0 <infile>
  4018c6:	74 44                	je     40190c <read_line+0xca>
  4018c8:	bf 51 2a 40 00       	mov    $0x402a51,%edi
  4018cd:	e8 9e f2 ff ff       	callq  400b70 <getenv@plt>
  4018d2:	48 85 c0             	test   %rax,%rax
  4018d5:	75 49                	jne    401920 <read_line+0xde>
  4018d7:	48 8b 05 b2 32 20 00 	mov    0x2032b2(%rip),%rax        # 604b90 <stdin@@GLIBC_2.2.5>
  4018de:	48 89 05 cb 32 20 00 	mov    %rax,0x2032cb(%rip)        # 604bb0 <infile>
  4018e5:	b8 00 00 00 00       	mov    $0x0,%eax
  4018ea:	e8 91 fd ff ff       	callq  401680 <skip>
  4018ef:	48 85 c0             	test   %rax,%rax
  4018f2:	0f 85 5d ff ff ff    	jne    401855 <read_line+0x13>
  4018f8:	bf 33 2a 40 00       	mov    $0x402a33,%edi
  4018fd:	e8 ae f2 ff ff       	callq  400bb0 <puts@plt>
  401902:	bf 00 00 00 00       	mov    $0x0,%edi
  401907:	e8 c4 f3 ff ff       	callq  400cd0 <exit@plt>
  40190c:	bf 33 2a 40 00       	mov    $0x402a33,%edi
  401911:	e8 9a f2 ff ff       	callq  400bb0 <puts@plt>
  401916:	bf 08 00 00 00       	mov    $0x8,%edi
  40191b:	e8 b0 f3 ff ff       	callq  400cd0 <exit@plt>
  401920:	bf 00 00 00 00       	mov    $0x0,%edi
  401925:	e8 a6 f3 ff ff       	callq  400cd0 <exit@plt>
  40192a:	bf 5c 2a 40 00       	mov    $0x402a5c,%edi
  40192f:	e8 7c f2 ff ff       	callq  400bb0 <puts@plt>
  401934:	8b 05 72 32 20 00    	mov    0x203272(%rip),%eax        # 604bac <num_input_strings>
  40193a:	8d 50 01             	lea    0x1(%rax),%edx
  40193d:	89 15 69 32 20 00    	mov    %edx,0x203269(%rip)        # 604bac <num_input_strings>
  401943:	48 98                	cltq   
  401945:	48 6b c0 50          	imul   $0x50,%rax,%rax
  401949:	48 bf 2a 2a 2a 74 72 	movabs $0x636e7572742a2a2a,%rdi
  401950:	75 6e 63 
  401953:	48 89 b8 c0 4b 60 00 	mov    %rdi,0x604bc0(%rax)
  40195a:	48 bf 61 74 65 64 2a 	movabs $0x2a2a2a64657461,%rdi
  401961:	2a 2a 00 
  401964:	48 89 b8 c8 4b 60 00 	mov    %rdi,0x604bc8(%rax)
  40196b:	e8 5d fe ff ff       	callq  4017cd <explode_bomb>

0000000000401970 <phase_defused>:
  401970:	48 83 ec 08          	sub    $0x8,%rsp
  401974:	bf 01 00 00 00       	mov    $0x1,%edi
  401979:	e8 43 fd ff ff       	callq  4016c1 <send_msg>
  40197e:	83 3d 27 32 20 00 09 	cmpl   $0x9,0x203227(%rip)        # 604bac <num_input_strings>
  401985:	74 05                	je     40198c <phase_defused+0x1c>
  401987:	48 83 c4 08          	add    $0x8,%rsp
  40198b:	c3                   	retq   
  40198c:	bf 38 29 40 00       	mov    $0x402938,%edi
  401991:	e8 1a f2 ff ff       	callq  400bb0 <puts@plt>
  401996:	bf 68 29 40 00       	mov    $0x402968,%edi
  40199b:	e8 10 f2 ff ff       	callq  400bb0 <puts@plt>
  4019a0:	eb e5                	jmp    401987 <phase_defused+0x17>

00000000004019a2 <sigalrm_handler>:
  4019a2:	48 83 ec 08          	sub    $0x8,%rsp
  4019a6:	b9 00 00 00 00       	mov    $0x0,%ecx
  4019ab:	ba e0 2d 40 00       	mov    $0x402de0,%edx
  4019b0:	be 01 00 00 00       	mov    $0x1,%esi
  4019b5:	48 8b 3d e4 31 20 00 	mov    0x2031e4(%rip),%rdi        # 604ba0 <stderr@@GLIBC_2.2.5>
  4019bc:	b8 00 00 00 00       	mov    $0x0,%eax
  4019c1:	e8 2a f3 ff ff       	callq  400cf0 <__fprintf_chk@plt>
  4019c6:	bf 01 00 00 00       	mov    $0x1,%edi
  4019cb:	e8 00 f3 ff ff       	callq  400cd0 <exit@plt>

00000000004019d0 <rio_readlineb>:
  4019d0:	41 56                	push   %r14
  4019d2:	41 55                	push   %r13
  4019d4:	41 54                	push   %r12
  4019d6:	55                   	push   %rbp
  4019d7:	53                   	push   %rbx
  4019d8:	48 89 fb             	mov    %rdi,%rbx
  4019db:	49 89 d6             	mov    %rdx,%r14
  4019de:	49 89 f5             	mov    %rsi,%r13
  4019e1:	41 bc 01 00 00 00    	mov    $0x1,%r12d
  4019e7:	48 8d 6f 10          	lea    0x10(%rdi),%rbp
  4019eb:	48 83 fa 01          	cmp    $0x1,%rdx
  4019ef:	77 0c                	ja     4019fd <rio_readlineb+0x2d>
  4019f1:	eb 5f                	jmp    401a52 <rio_readlineb+0x82>
  4019f3:	e8 98 f1 ff ff       	callq  400b90 <__errno_location@plt>
  4019f8:	83 38 04             	cmpl   $0x4,(%rax)
  4019fb:	75 66                	jne    401a63 <rio_readlineb+0x93>
  4019fd:	8b 43 04             	mov    0x4(%rbx),%eax
  401a00:	85 c0                	test   %eax,%eax
  401a02:	7f 20                	jg     401a24 <rio_readlineb+0x54>
  401a04:	ba 00 20 00 00       	mov    $0x2000,%edx
  401a09:	48 89 ee             	mov    %rbp,%rsi
  401a0c:	8b 3b                	mov    (%rbx),%edi
  401a0e:	e8 ed f1 ff ff       	callq  400c00 <read@plt>
  401a13:	89 43 04             	mov    %eax,0x4(%rbx)
  401a16:	85 c0                	test   %eax,%eax
  401a18:	78 d9                	js     4019f3 <rio_readlineb+0x23>
  401a1a:	85 c0                	test   %eax,%eax
  401a1c:	74 4e                	je     401a6c <rio_readlineb+0x9c>
  401a1e:	48 89 6b 08          	mov    %rbp,0x8(%rbx)
  401a22:	eb d9                	jmp    4019fd <rio_readlineb+0x2d>
  401a24:	48 8b 53 08          	mov    0x8(%rbx),%rdx
  401a28:	0f b6 0a             	movzbl (%rdx),%ecx
  401a2b:	48 83 c2 01          	add    $0x1,%rdx
  401a2f:	48 89 53 08          	mov    %rdx,0x8(%rbx)
  401a33:	83 e8 01             	sub    $0x1,%eax
  401a36:	89 43 04             	mov    %eax,0x4(%rbx)
  401a39:	49 83 c5 01          	add    $0x1,%r13
  401a3d:	41 88 4d ff          	mov    %cl,-0x1(%r13)
  401a41:	80 f9 0a             	cmp    $0xa,%cl
  401a44:	74 0c                	je     401a52 <rio_readlineb+0x82>
  401a46:	41 83 c4 01          	add    $0x1,%r12d
  401a4a:	49 63 c4             	movslq %r12d,%rax
  401a4d:	4c 39 f0             	cmp    %r14,%rax
  401a50:	72 ab                	jb     4019fd <rio_readlineb+0x2d>
  401a52:	41 c6 45 00 00       	movb   $0x0,0x0(%r13)
  401a57:	49 63 c4             	movslq %r12d,%rax
  401a5a:	5b                   	pop    %rbx
  401a5b:	5d                   	pop    %rbp
  401a5c:	41 5c                	pop    %r12
  401a5e:	41 5d                	pop    %r13
  401a60:	41 5e                	pop    %r14
  401a62:	c3                   	retq   
  401a63:	48 c7 c0 ff ff ff ff 	mov    $0xffffffffffffffff,%rax
  401a6a:	eb 05                	jmp    401a71 <rio_readlineb+0xa1>
  401a6c:	b8 00 00 00 00       	mov    $0x0,%eax
  401a71:	85 c0                	test   %eax,%eax
  401a73:	75 0d                	jne    401a82 <rio_readlineb+0xb2>
  401a75:	41 83 fc 01          	cmp    $0x1,%r12d
  401a79:	75 d7                	jne    401a52 <rio_readlineb+0x82>
  401a7b:	b8 00 00 00 00       	mov    $0x0,%eax
  401a80:	eb d8                	jmp    401a5a <rio_readlineb+0x8a>
  401a82:	48 c7 c0 ff ff ff ff 	mov    $0xffffffffffffffff,%rax
  401a89:	eb cf                	jmp    401a5a <rio_readlineb+0x8a>

0000000000401a8b <submitr>:
  401a8b:	41 57                	push   %r15
  401a8d:	41 56                	push   %r14
  401a8f:	41 55                	push   %r13
  401a91:	41 54                	push   %r12
  401a93:	55                   	push   %rbp
  401a94:	53                   	push   %rbx
  401a95:	48 81 ec 68 a0 00 00 	sub    $0xa068,%rsp
  401a9c:	48 89 fd             	mov    %rdi,%rbp
  401a9f:	41 89 f5             	mov    %esi,%r13d
  401aa2:	48 89 54 24 08       	mov    %rdx,0x8(%rsp)
  401aa7:	48 89 4c 24 10       	mov    %rcx,0x10(%rsp)
  401aac:	4c 89 44 24 18       	mov    %r8,0x18(%rsp)
  401ab1:	4c 89 cb             	mov    %r9,%rbx
  401ab4:	4c 8b bc 24 a0 a0 00 	mov    0xa0a0(%rsp),%r15
  401abb:	00 
  401abc:	64 48 8b 04 25 28 00 	mov    %fs:0x28,%rax
  401ac3:	00 00 
  401ac5:	48 89 84 24 58 a0 00 	mov    %rax,0xa058(%rsp)
  401acc:	00 
  401acd:	31 c0                	xor    %eax,%eax
  401acf:	c7 44 24 2c 00 00 00 	movl   $0x0,0x2c(%rsp)
  401ad6:	00 
  401ad7:	ba 00 00 00 00       	mov    $0x0,%edx
  401adc:	be 01 00 00 00       	mov    $0x1,%esi
  401ae1:	bf 02 00 00 00       	mov    $0x2,%edi
  401ae6:	e8 45 f2 ff ff       	callq  400d30 <socket@plt>
  401aeb:	85 c0                	test   %eax,%eax
  401aed:	0f 88 19 01 00 00    	js     401c0c <submitr+0x181>
  401af3:	41 89 c4             	mov    %eax,%r12d
  401af6:	48 89 ef             	mov    %rbp,%rdi
  401af9:	e8 42 f1 ff ff       	callq  400c40 <gethostbyname@plt>
  401afe:	48 85 c0             	test   %rax,%rax
  401b01:	0f 84 55 01 00 00    	je     401c5c <submitr+0x1d1>
  401b07:	48 c7 44 24 30 00 00 	movq   $0x0,0x30(%rsp)
  401b0e:	00 00 
  401b10:	48 c7 44 24 38 00 00 	movq   $0x0,0x38(%rsp)
  401b17:	00 00 
  401b19:	66 c7 44 24 30 02 00 	movw   $0x2,0x30(%rsp)
  401b20:	48 63 50 14          	movslq 0x14(%rax),%rdx
  401b24:	48 8b 40 18          	mov    0x18(%rax),%rax
  401b28:	48 8d 7c 24 34       	lea    0x34(%rsp),%rdi
  401b2d:	b9 0c 00 00 00       	mov    $0xc,%ecx
  401b32:	48 8b 30             	mov    (%rax),%rsi
  401b35:	e8 16 f1 ff ff       	callq  400c50 <__memmove_chk@plt>
  401b3a:	66 41 c1 cd 08       	ror    $0x8,%r13w
  401b3f:	66 44 89 6c 24 32    	mov    %r13w,0x32(%rsp)
  401b45:	ba 10 00 00 00       	mov    $0x10,%edx
  401b4a:	48 8d 74 24 30       	lea    0x30(%rsp),%rsi
  401b4f:	44 89 e7             	mov    %r12d,%edi
  401b52:	e8 89 f1 ff ff       	callq  400ce0 <connect@plt>
  401b57:	85 c0                	test   %eax,%eax
  401b59:	0f 88 68 01 00 00    	js     401cc7 <submitr+0x23c>
  401b5f:	49 c7 c1 ff ff ff ff 	mov    $0xffffffffffffffff,%r9
  401b66:	b8 00 00 00 00       	mov    $0x0,%eax
  401b6b:	4c 89 c9             	mov    %r9,%rcx
  401b6e:	48 89 df             	mov    %rbx,%rdi
  401b71:	f2 ae                	repnz scas %es:(%rdi),%al
  401b73:	48 89 ce             	mov    %rcx,%rsi
  401b76:	48 f7 d6             	not    %rsi
  401b79:	4c 89 c9             	mov    %r9,%rcx
  401b7c:	48 8b 7c 24 08       	mov    0x8(%rsp),%rdi
  401b81:	f2 ae                	repnz scas %es:(%rdi),%al
  401b83:	49 89 c8             	mov    %rcx,%r8
  401b86:	4c 89 c9             	mov    %r9,%rcx
  401b89:	48 8b 7c 24 10       	mov    0x10(%rsp),%rdi
  401b8e:	f2 ae                	repnz scas %es:(%rdi),%al
  401b90:	48 89 ca             	mov    %rcx,%rdx
  401b93:	48 f7 d2             	not    %rdx
  401b96:	4c 89 c9             	mov    %r9,%rcx
  401b99:	48 8b 7c 24 18       	mov    0x18(%rsp),%rdi
  401b9e:	f2 ae                	repnz scas %es:(%rdi),%al
  401ba0:	4c 29 c2             	sub    %r8,%rdx
  401ba3:	48 29 ca             	sub    %rcx,%rdx
  401ba6:	48 8d 44 76 fd       	lea    -0x3(%rsi,%rsi,2),%rax
  401bab:	48 8d 44 02 7b       	lea    0x7b(%rdx,%rax,1),%rax
  401bb0:	48 3d 00 20 00 00    	cmp    $0x2000,%rax
  401bb6:	0f 87 68 01 00 00    	ja     401d24 <submitr+0x299>
  401bbc:	48 8d 94 24 50 40 00 	lea    0x4050(%rsp),%rdx
  401bc3:	00 
  401bc4:	b9 00 04 00 00       	mov    $0x400,%ecx
  401bc9:	b8 00 00 00 00       	mov    $0x0,%eax
  401bce:	48 89 d7             	mov    %rdx,%rdi
  401bd1:	f3 48 ab             	rep stos %rax,%es:(%rdi)
  401bd4:	48 c7 c1 ff ff ff ff 	mov    $0xffffffffffffffff,%rcx
  401bdb:	48 89 df             	mov    %rbx,%rdi
  401bde:	f2 ae                	repnz scas %es:(%rdi),%al
  401be0:	48 89 c8             	mov    %rcx,%rax
  401be3:	48 f7 d0             	not    %rax
  401be6:	48 83 e8 01          	sub    $0x1,%rax
  401bea:	85 c0                	test   %eax,%eax
  401bec:	0f 84 51 06 00 00    	je     402243 <submitr+0x7b8>
  401bf2:	8d 40 ff             	lea    -0x1(%rax),%eax
  401bf5:	4c 8d 74 03 01       	lea    0x1(%rbx,%rax,1),%r14
  401bfa:	48 89 d5             	mov    %rdx,%rbp
  401bfd:	49 bd d9 ff 00 00 00 	movabs $0x2000000000ffd9,%r13
  401c04:	00 20 00 
  401c07:	e9 a6 01 00 00       	jmpq   401db2 <submitr+0x327>
  401c0c:	48 b8 45 72 72 6f 72 	movabs $0x43203a726f727245,%rax
  401c13:	3a 20 43 
  401c16:	49 89 07             	mov    %rax,(%r15)
  401c19:	48 b8 6c 69 65 6e 74 	movabs $0x6e7520746e65696c,%rax
  401c20:	20 75 6e 
  401c23:	49 89 47 08          	mov    %rax,0x8(%r15)
  401c27:	48 b8 61 62 6c 65 20 	movabs $0x206f7420656c6261,%rax
  401c2e:	74 6f 20 
  401c31:	49 89 47 10          	mov    %rax,0x10(%r15)
  401c35:	48 b8 63 72 65 61 74 	movabs $0x7320657461657263,%rax
  401c3c:	65 20 73 
  401c3f:	49 89 47 18          	mov    %rax,0x18(%r15)
  401c43:	41 c7 47 20 6f 63 6b 	movl   $0x656b636f,0x20(%r15)
  401c4a:	65 
  401c4b:	66 41 c7 47 24 74 00 	movw   $0x74,0x24(%r15)
  401c52:	b8 ff ff ff ff       	mov    $0xffffffff,%eax
  401c57:	e9 be 04 00 00       	jmpq   40211a <submitr+0x68f>
  401c5c:	48 b8 45 72 72 6f 72 	movabs $0x44203a726f727245,%rax
  401c63:	3a 20 44 
  401c66:	49 89 07             	mov    %rax,(%r15)
  401c69:	48 b8 4e 53 20 69 73 	movabs $0x6e7520736920534e,%rax
  401c70:	20 75 6e 
  401c73:	49 89 47 08          	mov    %rax,0x8(%r15)
  401c77:	48 b8 61 62 6c 65 20 	movabs $0x206f7420656c6261,%rax
  401c7e:	74 6f 20 
  401c81:	49 89 47 10          	mov    %rax,0x10(%r15)
  401c85:	48 b8 72 65 73 6f 6c 	movabs $0x2065766c6f736572,%rax
  401c8c:	76 65 20 
  401c8f:	49 89 47 18          	mov    %rax,0x18(%r15)
  401c93:	48 b8 73 65 72 76 65 	movabs $0x6120726576726573,%rax
  401c9a:	72 20 61 
  401c9d:	49 89 47 20          	mov    %rax,0x20(%r15)
  401ca1:	41 c7 47 28 64 64 72 	movl   $0x65726464,0x28(%r15)
  401ca8:	65 
  401ca9:	66 41 c7 47 2c 73 73 	movw   $0x7373,0x2c(%r15)
  401cb0:	41 c6 47 2e 00       	movb   $0x0,0x2e(%r15)
  401cb5:	44 89 e7             	mov    %r12d,%edi
  401cb8:	e8 33 ef ff ff       	callq  400bf0 <close@plt>
  401cbd:	b8 ff ff ff ff       	mov    $0xffffffff,%eax
  401cc2:	e9 53 04 00 00       	jmpq   40211a <submitr+0x68f>
  401cc7:	48 b8 45 72 72 6f 72 	movabs $0x55203a726f727245,%rax
  401cce:	3a 20 55 
  401cd1:	49 89 07             	mov    %rax,(%r15)
  401cd4:	48 b8 6e 61 62 6c 65 	movabs $0x6f7420656c62616e,%rax
  401cdb:	20 74 6f 
  401cde:	49 89 47 08          	mov    %rax,0x8(%r15)
  401ce2:	48 b8 20 63 6f 6e 6e 	movabs $0x7463656e6e6f6320,%rax
  401ce9:	65 63 74 
  401cec:	49 89 47 10          	mov    %rax,0x10(%r15)
  401cf0:	48 b8 20 74 6f 20 74 	movabs $0x20656874206f7420,%rax
  401cf7:	68 65 20 
  401cfa:	49 89 47 18          	mov    %rax,0x18(%r15)
  401cfe:	41 c7 47 20 73 65 72 	movl   $0x76726573,0x20(%r15)
  401d05:	76 
  401d06:	66 41 c7 47 24 65 72 	movw   $0x7265,0x24(%r15)
  401d0d:	41 c6 47 26 00       	movb   $0x0,0x26(%r15)
  401d12:	44 89 e7             	mov    %r12d,%edi
  401d15:	e8 d6 ee ff ff       	callq  400bf0 <close@plt>
  401d1a:	b8 ff ff ff ff       	mov    $0xffffffff,%eax
  401d1f:	e9 f6 03 00 00       	jmpq   40211a <submitr+0x68f>
  401d24:	48 b8 45 72 72 6f 72 	movabs $0x52203a726f727245,%rax
  401d2b:	3a 20 52 
  401d2e:	49 89 07             	mov    %rax,(%r15)
  401d31:	48 b8 65 73 75 6c 74 	movabs $0x747320746c757365,%rax
  401d38:	20 73 74 
  401d3b:	49 89 47 08          	mov    %rax,0x8(%r15)
  401d3f:	48 b8 72 69 6e 67 20 	movabs $0x6f6f7420676e6972,%rax
  401d46:	74 6f 6f 
  401d49:	49 89 47 10          	mov    %rax,0x10(%r15)
  401d4d:	48 b8 20 6c 61 72 67 	movabs $0x202e656772616c20,%rax
  401d54:	65 2e 20 
  401d57:	49 89 47 18          	mov    %rax,0x18(%r15)
  401d5b:	48 b8 49 6e 63 72 65 	movabs $0x6573616572636e49,%rax
  401d62:	61 73 65 
  401d65:	49 89 47 20          	mov    %rax,0x20(%r15)
  401d69:	48 b8 20 53 55 42 4d 	movabs $0x5254494d42555320,%rax
  401d70:	49 54 52 
  401d73:	49 89 47 28          	mov    %rax,0x28(%r15)
  401d77:	48 b8 5f 4d 41 58 42 	movabs $0x46554258414d5f,%rax
  401d7e:	55 46 00 
  401d81:	49 89 47 30          	mov    %rax,0x30(%r15)
  401d85:	44 89 e7             	mov    %r12d,%edi
  401d88:	e8 63 ee ff ff       	callq  400bf0 <close@plt>
  401d8d:	b8 ff ff ff ff       	mov    $0xffffffff,%eax
  401d92:	e9 83 03 00 00       	jmpq   40211a <submitr+0x68f>
  401d97:	49 0f a3 c5          	bt     %rax,%r13
  401d9b:	73 21                	jae    401dbe <submitr+0x333>
  401d9d:	44 88 45 00          	mov    %r8b,0x0(%rbp)
  401da1:	48 8d 6d 01          	lea    0x1(%rbp),%rbp
  401da5:	48 83 c3 01          	add    $0x1,%rbx
  401da9:	49 39 de             	cmp    %rbx,%r14
  401dac:	0f 84 91 04 00 00    	je     402243 <submitr+0x7b8>
  401db2:	44 0f b6 03          	movzbl (%rbx),%r8d
  401db6:	41 8d 40 d6          	lea    -0x2a(%r8),%eax
  401dba:	3c 35                	cmp    $0x35,%al
  401dbc:	76 d9                	jbe    401d97 <submitr+0x30c>
  401dbe:	44 89 c0             	mov    %r8d,%eax
  401dc1:	83 e0 df             	and    $0xffffffdf,%eax
  401dc4:	83 e8 41             	sub    $0x41,%eax
  401dc7:	3c 19                	cmp    $0x19,%al
  401dc9:	76 d2                	jbe    401d9d <submitr+0x312>
  401dcb:	41 80 f8 20          	cmp    $0x20,%r8b
  401dcf:	74 61                	je     401e32 <submitr+0x3a7>
  401dd1:	41 8d 40 e0          	lea    -0x20(%r8),%eax
  401dd5:	3c 5f                	cmp    $0x5f,%al
  401dd7:	76 0a                	jbe    401de3 <submitr+0x358>
  401dd9:	41 80 f8 09          	cmp    $0x9,%r8b
  401ddd:	0f 85 d3 03 00 00    	jne    4021b6 <submitr+0x72b>
  401de3:	45 0f b6 c0          	movzbl %r8b,%r8d
  401de7:	b9 b0 2e 40 00       	mov    $0x402eb0,%ecx
  401dec:	ba 08 00 00 00       	mov    $0x8,%edx
  401df1:	be 01 00 00 00       	mov    $0x1,%esi
  401df6:	48 8d bc 24 50 80 00 	lea    0x8050(%rsp),%rdi
  401dfd:	00 
  401dfe:	b8 00 00 00 00       	mov    $0x0,%eax
  401e03:	e8 18 ef ff ff       	callq  400d20 <__sprintf_chk@plt>
  401e08:	0f b6 84 24 50 80 00 	movzbl 0x8050(%rsp),%eax
  401e0f:	00 
  401e10:	88 45 00             	mov    %al,0x0(%rbp)
  401e13:	0f b6 84 24 51 80 00 	movzbl 0x8051(%rsp),%eax
  401e1a:	00 
  401e1b:	88 45 01             	mov    %al,0x1(%rbp)
  401e1e:	0f b6 84 24 52 80 00 	movzbl 0x8052(%rsp),%eax
  401e25:	00 
  401e26:	88 45 02             	mov    %al,0x2(%rbp)
  401e29:	48 8d 6d 03          	lea    0x3(%rbp),%rbp
  401e2d:	e9 73 ff ff ff       	jmpq   401da5 <submitr+0x31a>
  401e32:	c6 45 00 2b          	movb   $0x2b,0x0(%rbp)
  401e36:	48 8d 6d 01          	lea    0x1(%rbp),%rbp
  401e3a:	e9 66 ff ff ff       	jmpq   401da5 <submitr+0x31a>
  401e3f:	48 01 c5             	add    %rax,%rbp
  401e42:	48 29 c3             	sub    %rax,%rbx
  401e45:	74 26                	je     401e6d <submitr+0x3e2>
  401e47:	48 89 da             	mov    %rbx,%rdx
  401e4a:	48 89 ee             	mov    %rbp,%rsi
  401e4d:	44 89 e7             	mov    %r12d,%edi
  401e50:	e8 6b ed ff ff       	callq  400bc0 <write@plt>
  401e55:	48 85 c0             	test   %rax,%rax
  401e58:	7f e5                	jg     401e3f <submitr+0x3b4>
  401e5a:	e8 31 ed ff ff       	callq  400b90 <__errno_location@plt>
  401e5f:	83 38 04             	cmpl   $0x4,(%rax)
  401e62:	0f 85 c5 00 00 00    	jne    401f2d <submitr+0x4a2>
  401e68:	4c 89 f0             	mov    %r14,%rax
  401e6b:	eb d2                	jmp    401e3f <submitr+0x3b4>
  401e6d:	4d 85 ed             	test   %r13,%r13
  401e70:	0f 88 b7 00 00 00    	js     401f2d <submitr+0x4a2>
  401e76:	44 89 64 24 40       	mov    %r12d,0x40(%rsp)
  401e7b:	c7 44 24 44 00 00 00 	movl   $0x0,0x44(%rsp)
  401e82:	00 
  401e83:	48 8d 44 24 50       	lea    0x50(%rsp),%rax
  401e88:	48 89 44 24 48       	mov    %rax,0x48(%rsp)
  401e8d:	ba 00 20 00 00       	mov    $0x2000,%edx
  401e92:	48 8d b4 24 50 20 00 	lea    0x2050(%rsp),%rsi
  401e99:	00 
  401e9a:	48 8d 7c 24 40       	lea    0x40(%rsp),%rdi
  401e9f:	e8 2c fb ff ff       	callq  4019d0 <rio_readlineb>
  401ea4:	48 85 c0             	test   %rax,%rax
  401ea7:	0f 8e df 00 00 00    	jle    401f8c <submitr+0x501>
  401ead:	4c 8d 84 24 50 80 00 	lea    0x8050(%rsp),%r8
  401eb4:	00 
  401eb5:	48 8d 4c 24 2c       	lea    0x2c(%rsp),%rcx
  401eba:	48 8d 94 24 50 60 00 	lea    0x6050(%rsp),%rdx
  401ec1:	00 
  401ec2:	be b7 2e 40 00       	mov    $0x402eb7,%esi
  401ec7:	48 8d bc 24 50 20 00 	lea    0x2050(%rsp),%rdi
  401ece:	00 
  401ecf:	b8 00 00 00 00       	mov    $0x0,%eax
  401ed4:	e8 b7 ed ff ff       	callq  400c90 <__isoc99_sscanf@plt>
  401ed9:	44 8b 44 24 2c       	mov    0x2c(%rsp),%r8d
  401ede:	bb 0d 00 00 00       	mov    $0xd,%ebx
  401ee3:	bd 0a 00 00 00       	mov    $0xa,%ebp
  401ee8:	41 81 f8 c8 00 00 00 	cmp    $0xc8,%r8d
  401eef:	0f 84 99 01 00 00    	je     40208e <submitr+0x603>
  401ef5:	4c 8d 8c 24 50 80 00 	lea    0x8050(%rsp),%r9
  401efc:	00 
  401efd:	b9 08 2e 40 00       	mov    $0x402e08,%ecx
  401f02:	48 c7 c2 ff ff ff ff 	mov    $0xffffffffffffffff,%rdx
  401f09:	be 01 00 00 00       	mov    $0x1,%esi
  401f0e:	4c 89 ff             	mov    %r15,%rdi
  401f11:	b8 00 00 00 00       	mov    $0x0,%eax
  401f16:	e8 05 ee ff ff       	callq  400d20 <__sprintf_chk@plt>
  401f1b:	44 89 e7             	mov    %r12d,%edi
  401f1e:	e8 cd ec ff ff       	callq  400bf0 <close@plt>
  401f23:	b8 ff ff ff ff       	mov    $0xffffffff,%eax
  401f28:	e9 ed 01 00 00       	jmpq   40211a <submitr+0x68f>
  401f2d:	48 b8 45 72 72 6f 72 	movabs $0x43203a726f727245,%rax
  401f34:	3a 20 43 
  401f37:	49 89 07             	mov    %rax,(%r15)
  401f3a:	48 b8 6c 69 65 6e 74 	movabs $0x6e7520746e65696c,%rax
  401f41:	20 75 6e 
  401f44:	49 89 47 08          	mov    %rax,0x8(%r15)
  401f48:	48 b8 61 62 6c 65 20 	movabs $0x206f7420656c6261,%rax
  401f4f:	74 6f 20 
  401f52:	49 89 47 10          	mov    %rax,0x10(%r15)
  401f56:	48 b8 77 72 69 74 65 	movabs $0x6f74206574697277,%rax
  401f5d:	20 74 6f 
  401f60:	49 89 47 18          	mov    %rax,0x18(%r15)
  401f64:	48 b8 20 74 68 65 20 	movabs $0x7265732065687420,%rax
  401f6b:	73 65 72 
  401f6e:	49 89 47 20          	mov    %rax,0x20(%r15)
  401f72:	41 c7 47 28 76 65 72 	movl   $0x726576,0x28(%r15)
  401f79:	00 
  401f7a:	44 89 e7             	mov    %r12d,%edi
  401f7d:	e8 6e ec ff ff       	callq  400bf0 <close@plt>
  401f82:	b8 ff ff ff ff       	mov    $0xffffffff,%eax
  401f87:	e9 8e 01 00 00       	jmpq   40211a <submitr+0x68f>
  401f8c:	48 b8 45 72 72 6f 72 	movabs $0x43203a726f727245,%rax
  401f93:	3a 20 43 
  401f96:	49 89 07             	mov    %rax,(%r15)
  401f99:	48 b8 6c 69 65 6e 74 	movabs $0x6e7520746e65696c,%rax
  401fa0:	20 75 6e 
  401fa3:	49 89 47 08          	mov    %rax,0x8(%r15)
  401fa7:	48 b8 61 62 6c 65 20 	movabs $0x206f7420656c6261,%rax
  401fae:	74 6f 20 
  401fb1:	49 89 47 10          	mov    %rax,0x10(%r15)
  401fb5:	48 b8 72 65 61 64 20 	movabs $0x7269662064616572,%rax
  401fbc:	66 69 72 
  401fbf:	49 89 47 18          	mov    %rax,0x18(%r15)
  401fc3:	48 b8 73 74 20 68 65 	movabs $0x6564616568207473,%rax
  401fca:	61 64 65 
  401fcd:	49 89 47 20          	mov    %rax,0x20(%r15)
  401fd1:	48 b8 72 20 66 72 6f 	movabs $0x73206d6f72662072,%rax
  401fd8:	6d 20 73 
  401fdb:	49 89 47 28          	mov    %rax,0x28(%r15)
  401fdf:	41 c7 47 30 65 72 76 	movl   $0x65767265,0x30(%r15)
  401fe6:	65 
  401fe7:	66 41 c7 47 34 72 00 	movw   $0x72,0x34(%r15)
  401fee:	44 89 e7             	mov    %r12d,%edi
  401ff1:	e8 fa eb ff ff       	callq  400bf0 <close@plt>
  401ff6:	b8 ff ff ff ff       	mov    $0xffffffff,%eax
  401ffb:	e9 1a 01 00 00       	jmpq   40211a <submitr+0x68f>
  402000:	48 b8 45 72 72 6f 72 	movabs $0x43203a726f727245,%rax
  402007:	3a 20 43 
  40200a:	49 89 07             	mov    %rax,(%r15)
  40200d:	48 b8 6c 69 65 6e 74 	movabs $0x6e7520746e65696c,%rax
  402014:	20 75 6e 
  402017:	49 89 47 08          	mov    %rax,0x8(%r15)
  40201b:	48 b8 61 62 6c 65 20 	movabs $0x206f7420656c6261,%rax
  402022:	74 6f 20 
  402025:	49 89 47 10          	mov    %rax,0x10(%r15)
  402029:	48 b8 72 65 61 64 20 	movabs $0x6165682064616572,%rax
  402030:	68 65 61 
  402033:	49 89 47 18          	mov    %rax,0x18(%r15)
  402037:	48 b8 64 65 72 73 20 	movabs $0x6f72662073726564,%rax
  40203e:	66 72 6f 
  402041:	49 89 47 20          	mov    %rax,0x20(%r15)
  402045:	48 b8 6d 20 73 65 72 	movabs $0x726576726573206d,%rax
  40204c:	76 65 72 
  40204f:	49 89 47 28          	mov    %rax,0x28(%r15)
  402053:	41 c6 47 30 00       	movb   $0x0,0x30(%r15)
  402058:	44 89 e7             	mov    %r12d,%edi
  40205b:	e8 90 eb ff ff       	callq  400bf0 <close@plt>
  402060:	b8 ff ff ff ff       	mov    $0xffffffff,%eax
  402065:	e9 b0 00 00 00       	jmpq   40211a <submitr+0x68f>
  40206a:	85 c0                	test   %eax,%eax
  40206c:	74 4c                	je     4020ba <submitr+0x62f>
  40206e:	ba 00 20 00 00       	mov    $0x2000,%edx
  402073:	48 8d b4 24 50 20 00 	lea    0x2050(%rsp),%rsi
  40207a:	00 
  40207b:	48 8d 7c 24 40       	lea    0x40(%rsp),%rdi
  402080:	e8 4b f9 ff ff       	callq  4019d0 <rio_readlineb>
  402085:	48 85 c0             	test   %rax,%rax
  402088:	0f 8e 72 ff ff ff    	jle    402000 <submitr+0x575>
  40208e:	0f b6 84 24 50 20 00 	movzbl 0x2050(%rsp),%eax
  402095:	00 
  402096:	89 d9                	mov    %ebx,%ecx
  402098:	29 c1                	sub    %eax,%ecx
  40209a:	89 c8                	mov    %ecx,%eax
  40209c:	75 cc                	jne    40206a <submitr+0x5df>
  40209e:	0f b6 84 24 51 20 00 	movzbl 0x2051(%rsp),%eax
  4020a5:	00 
  4020a6:	89 ea                	mov    %ebp,%edx
  4020a8:	29 c2                	sub    %eax,%edx
  4020aa:	89 d0                	mov    %edx,%eax
  4020ac:	75 bc                	jne    40206a <submitr+0x5df>
  4020ae:	0f b6 84 24 52 20 00 	movzbl 0x2052(%rsp),%eax
  4020b5:	00 
  4020b6:	f7 d8                	neg    %eax
  4020b8:	eb b0                	jmp    40206a <submitr+0x5df>
  4020ba:	ba 00 20 00 00       	mov    $0x2000,%edx
  4020bf:	48 8d b4 24 50 20 00 	lea    0x2050(%rsp),%rsi
  4020c6:	00 
  4020c7:	48 8d 7c 24 40       	lea    0x40(%rsp),%rdi
  4020cc:	e8 ff f8 ff ff       	callq  4019d0 <rio_readlineb>
  4020d1:	48 85 c0             	test   %rax,%rax
  4020d4:	7e 6d                	jle    402143 <submitr+0x6b8>
  4020d6:	48 8d b4 24 50 20 00 	lea    0x2050(%rsp),%rsi
  4020dd:	00 
  4020de:	4c 89 ff             	mov    %r15,%rdi
  4020e1:	e8 ba ea ff ff       	callq  400ba0 <strcpy@plt>
  4020e6:	44 89 e7             	mov    %r12d,%edi
  4020e9:	e8 02 eb ff ff       	callq  400bf0 <close@plt>
  4020ee:	41 0f b6 17          	movzbl (%r15),%edx
  4020f2:	b8 4f 00 00 00       	mov    $0x4f,%eax
  4020f7:	29 d0                	sub    %edx,%eax
  4020f9:	75 15                	jne    402110 <submitr+0x685>
  4020fb:	41 0f b6 57 01       	movzbl 0x1(%r15),%edx
  402100:	b8 4b 00 00 00       	mov    $0x4b,%eax
  402105:	29 d0                	sub    %edx,%eax
  402107:	75 07                	jne    402110 <submitr+0x685>
  402109:	41 0f b6 47 02       	movzbl 0x2(%r15),%eax
  40210e:	f7 d8                	neg    %eax
  402110:	85 c0                	test   %eax,%eax
  402112:	0f 95 c0             	setne  %al
  402115:	0f b6 c0             	movzbl %al,%eax
  402118:	f7 d8                	neg    %eax
  40211a:	48 8b 8c 24 58 a0 00 	mov    0xa058(%rsp),%rcx
  402121:	00 
  402122:	64 48 33 0c 25 28 00 	xor    %fs:0x28,%rcx
  402129:	00 00 
  40212b:	0f 85 8b 01 00 00    	jne    4022bc <submitr+0x831>
  402131:	48 81 c4 68 a0 00 00 	add    $0xa068,%rsp
  402138:	5b                   	pop    %rbx
  402139:	5d                   	pop    %rbp
  40213a:	41 5c                	pop    %r12
  40213c:	41 5d                	pop    %r13
  40213e:	41 5e                	pop    %r14
  402140:	41 5f                	pop    %r15
  402142:	c3                   	retq   
  402143:	48 b8 45 72 72 6f 72 	movabs $0x43203a726f727245,%rax
  40214a:	3a 20 43 
  40214d:	49 89 07             	mov    %rax,(%r15)
  402150:	48 b8 6c 69 65 6e 74 	movabs $0x6e7520746e65696c,%rax
  402157:	20 75 6e 
  40215a:	49 89 47 08          	mov    %rax,0x8(%r15)
  40215e:	48 b8 61 62 6c 65 20 	movabs $0x206f7420656c6261,%rax
  402165:	74 6f 20 
  402168:	49 89 47 10          	mov    %rax,0x10(%r15)
  40216c:	48 b8 72 65 61 64 20 	movabs $0x6174732064616572,%rax
  402173:	73 74 61 
  402176:	49 89 47 18          	mov    %rax,0x18(%r15)
  40217a:	48 b8 74 75 73 20 6d 	movabs $0x7373656d20737574,%rax
  402181:	65 73 73 
  402184:	49 89 47 20          	mov    %rax,0x20(%r15)
  402188:	48 b8 61 67 65 20 66 	movabs $0x6d6f726620656761,%rax
  40218f:	72 6f 6d 
  402192:	49 89 47 28          	mov    %rax,0x28(%r15)
  402196:	48 b8 20 73 65 72 76 	movabs $0x72657672657320,%rax
  40219d:	65 72 00 
  4021a0:	49 89 47 30          	mov    %rax,0x30(%r15)
  4021a4:	44 89 e7             	mov    %r12d,%edi
  4021a7:	e8 44 ea ff ff       	callq  400bf0 <close@plt>
  4021ac:	b8 ff ff ff ff       	mov    $0xffffffff,%eax
  4021b1:	e9 64 ff ff ff       	jmpq   40211a <submitr+0x68f>
  4021b6:	48 b8 45 72 72 6f 72 	movabs $0x52203a726f727245,%rax
  4021bd:	3a 20 52 
  4021c0:	49 89 07             	mov    %rax,(%r15)
  4021c3:	48 b8 65 73 75 6c 74 	movabs $0x747320746c757365,%rax
  4021ca:	20 73 74 
  4021cd:	49 89 47 08          	mov    %rax,0x8(%r15)
  4021d1:	48 b8 72 69 6e 67 20 	movabs $0x6e6f6320676e6972,%rax
  4021d8:	63 6f 6e 
  4021db:	49 89 47 10          	mov    %rax,0x10(%r15)
  4021df:	48 b8 74 61 69 6e 73 	movabs $0x6e6120736e696174,%rax
  4021e6:	20 61 6e 
  4021e9:	49 89 47 18          	mov    %rax,0x18(%r15)
  4021ed:	48 b8 20 69 6c 6c 65 	movabs $0x6c6167656c6c6920,%rax
  4021f4:	67 61 6c 
  4021f7:	49 89 47 20          	mov    %rax,0x20(%r15)
  4021fb:	48 b8 20 6f 72 20 75 	movabs $0x72706e7520726f20,%rax
  402202:	6e 70 72 
  402205:	49 89 47 28          	mov    %rax,0x28(%r15)
  402209:	48 b8 69 6e 74 61 62 	movabs $0x20656c6261746e69,%rax
  402210:	6c 65 20 
  402213:	49 89 47 30          	mov    %rax,0x30(%r15)
  402217:	48 b8 63 68 61 72 61 	movabs $0x6574636172616863,%rax
  40221e:	63 74 65 
  402221:	49 89 47 38          	mov    %rax,0x38(%r15)
  402225:	66 41 c7 47 40 72 2e 	movw   $0x2e72,0x40(%r15)
  40222c:	41 c6 47 42 00       	movb   $0x0,0x42(%r15)
  402231:	44 89 e7             	mov    %r12d,%edi
  402234:	e8 b7 e9 ff ff       	callq  400bf0 <close@plt>
  402239:	b8 ff ff ff ff       	mov    $0xffffffff,%eax
  40223e:	e9 d7 fe ff ff       	jmpq   40211a <submitr+0x68f>
  402243:	48 8d 9c 24 50 20 00 	lea    0x2050(%rsp),%rbx
  40224a:	00 
  40224b:	48 8d 84 24 50 40 00 	lea    0x4050(%rsp),%rax
  402252:	00 
  402253:	50                   	push   %rax
  402254:	ff 74 24 20          	pushq  0x20(%rsp)
  402258:	4c 8b 4c 24 20       	mov    0x20(%rsp),%r9
  40225d:	4c 8b 44 24 18       	mov    0x18(%rsp),%r8
  402262:	b9 38 2e 40 00       	mov    $0x402e38,%ecx
  402267:	ba 00 20 00 00       	mov    $0x2000,%edx
  40226c:	be 01 00 00 00       	mov    $0x1,%esi
  402271:	48 89 df             	mov    %rbx,%rdi
  402274:	b8 00 00 00 00       	mov    $0x0,%eax
  402279:	e8 a2 ea ff ff       	callq  400d20 <__sprintf_chk@plt>
  40227e:	b8 00 00 00 00       	mov    $0x0,%eax
  402283:	48 c7 c1 ff ff ff ff 	mov    $0xffffffffffffffff,%rcx
  40228a:	48 89 df             	mov    %rbx,%rdi
  40228d:	f2 ae                	repnz scas %es:(%rdi),%al
  40228f:	48 89 c8             	mov    %rcx,%rax
  402292:	48 f7 d0             	not    %rax
  402295:	4c 8d 68 ff          	lea    -0x1(%rax),%r13
  402299:	48 83 c4 10          	add    $0x10,%rsp
  40229d:	4c 89 eb             	mov    %r13,%rbx
  4022a0:	48 8d ac 24 50 20 00 	lea    0x2050(%rsp),%rbp
  4022a7:	00 
  4022a8:	41 be 00 00 00 00    	mov    $0x0,%r14d
  4022ae:	4d 85 ed             	test   %r13,%r13
  4022b1:	0f 85 90 fb ff ff    	jne    401e47 <submitr+0x3bc>
  4022b7:	e9 ba fb ff ff       	jmpq   401e76 <submitr+0x3eb>
  4022bc:	e8 0f e9 ff ff       	callq  400bd0 <__stack_chk_fail@plt>

00000000004022c1 <init_timeout>:
  4022c1:	85 ff                	test   %edi,%edi
  4022c3:	74 22                	je     4022e7 <init_timeout+0x26>
  4022c5:	53                   	push   %rbx
  4022c6:	89 fb                	mov    %edi,%ebx
  4022c8:	be a2 19 40 00       	mov    $0x4019a2,%esi
  4022cd:	bf 0e 00 00 00       	mov    $0xe,%edi
  4022d2:	e8 59 e9 ff ff       	callq  400c30 <signal@plt>
  4022d7:	85 db                	test   %ebx,%ebx
  4022d9:	bf 00 00 00 00       	mov    $0x0,%edi
  4022de:	0f 49 fb             	cmovns %ebx,%edi
  4022e1:	e8 fa e8 ff ff       	callq  400be0 <alarm@plt>
  4022e6:	5b                   	pop    %rbx
  4022e7:	f3 c3                	repz retq 

00000000004022e9 <init_driver>:
  4022e9:	55                   	push   %rbp
  4022ea:	53                   	push   %rbx
  4022eb:	48 83 ec 28          	sub    $0x28,%rsp
  4022ef:	48 89 fd             	mov    %rdi,%rbp
  4022f2:	64 48 8b 04 25 28 00 	mov    %fs:0x28,%rax
  4022f9:	00 00 
  4022fb:	48 89 44 24 18       	mov    %rax,0x18(%rsp)
  402300:	31 c0                	xor    %eax,%eax
  402302:	be 01 00 00 00       	mov    $0x1,%esi
  402307:	bf 0d 00 00 00       	mov    $0xd,%edi
  40230c:	e8 1f e9 ff ff       	callq  400c30 <signal@plt>
  402311:	be 01 00 00 00       	mov    $0x1,%esi
  402316:	bf 1d 00 00 00       	mov    $0x1d,%edi
  40231b:	e8 10 e9 ff ff       	callq  400c30 <signal@plt>
  402320:	be 01 00 00 00       	mov    $0x1,%esi
  402325:	bf 1d 00 00 00       	mov    $0x1d,%edi
  40232a:	e8 01 e9 ff ff       	callq  400c30 <signal@plt>
  40232f:	ba 00 00 00 00       	mov    $0x0,%edx
  402334:	be 01 00 00 00       	mov    $0x1,%esi
  402339:	bf 02 00 00 00       	mov    $0x2,%edi
  40233e:	e8 ed e9 ff ff       	callq  400d30 <socket@plt>
  402343:	85 c0                	test   %eax,%eax
  402345:	0f 88 95 00 00 00    	js     4023e0 <init_driver+0xf7>
  40234b:	89 c3                	mov    %eax,%ebx
  40234d:	bf c8 2e 40 00       	mov    $0x402ec8,%edi
  402352:	e8 e9 e8 ff ff       	callq  400c40 <gethostbyname@plt>
  402357:	48 85 c0             	test   %rax,%rax
  40235a:	0f 84 cc 00 00 00    	je     40242c <init_driver+0x143>
  402360:	48 c7 04 24 00 00 00 	movq   $0x0,(%rsp)
  402367:	00 
  402368:	48 c7 44 24 08 00 00 	movq   $0x0,0x8(%rsp)
  40236f:	00 00 
  402371:	66 c7 04 24 02 00    	movw   $0x2,(%rsp)
  402377:	48 63 50 14          	movslq 0x14(%rax),%rdx
  40237b:	48 8b 40 18          	mov    0x18(%rax),%rax
  40237f:	48 8d 7c 24 04       	lea    0x4(%rsp),%rdi
  402384:	b9 0c 00 00 00       	mov    $0xc,%ecx
  402389:	48 8b 30             	mov    (%rax),%rsi
  40238c:	e8 bf e8 ff ff       	callq  400c50 <__memmove_chk@plt>
  402391:	66 c7 44 24 02 3f 49 	movw   $0x493f,0x2(%rsp)
  402398:	ba 10 00 00 00       	mov    $0x10,%edx
  40239d:	48 89 e6             	mov    %rsp,%rsi
  4023a0:	89 df                	mov    %ebx,%edi
  4023a2:	e8 39 e9 ff ff       	callq  400ce0 <connect@plt>
  4023a7:	85 c0                	test   %eax,%eax
  4023a9:	0f 88 e5 00 00 00    	js     402494 <init_driver+0x1ab>
  4023af:	89 df                	mov    %ebx,%edi
  4023b1:	e8 3a e8 ff ff       	callq  400bf0 <close@plt>
  4023b6:	66 c7 45 00 4f 4b    	movw   $0x4b4f,0x0(%rbp)
  4023bc:	c6 45 02 00          	movb   $0x0,0x2(%rbp)
  4023c0:	b8 00 00 00 00       	mov    $0x0,%eax
  4023c5:	48 8b 4c 24 18       	mov    0x18(%rsp),%rcx
  4023ca:	64 48 33 0c 25 28 00 	xor    %fs:0x28,%rcx
  4023d1:	00 00 
  4023d3:	0f 85 f0 00 00 00    	jne    4024c9 <init_driver+0x1e0>
  4023d9:	48 83 c4 28          	add    $0x28,%rsp
  4023dd:	5b                   	pop    %rbx
  4023de:	5d                   	pop    %rbp
  4023df:	c3                   	retq   
  4023e0:	48 b8 45 72 72 6f 72 	movabs $0x43203a726f727245,%rax
  4023e7:	3a 20 43 
  4023ea:	48 89 45 00          	mov    %rax,0x0(%rbp)
  4023ee:	48 b8 6c 69 65 6e 74 	movabs $0x6e7520746e65696c,%rax
  4023f5:	20 75 6e 
  4023f8:	48 89 45 08          	mov    %rax,0x8(%rbp)
  4023fc:	48 b8 61 62 6c 65 20 	movabs $0x206f7420656c6261,%rax
  402403:	74 6f 20 
  402406:	48 89 45 10          	mov    %rax,0x10(%rbp)
  40240a:	48 b8 63 72 65 61 74 	movabs $0x7320657461657263,%rax
  402411:	65 20 73 
  402414:	48 89 45 18          	mov    %rax,0x18(%rbp)
  402418:	c7 45 20 6f 63 6b 65 	movl   $0x656b636f,0x20(%rbp)
  40241f:	66 c7 45 24 74 00    	movw   $0x74,0x24(%rbp)
  402425:	b8 ff ff ff ff       	mov    $0xffffffff,%eax
  40242a:	eb 99                	jmp    4023c5 <init_driver+0xdc>
  40242c:	48 b8 45 72 72 6f 72 	movabs $0x44203a726f727245,%rax
  402433:	3a 20 44 
  402436:	48 89 45 00          	mov    %rax,0x0(%rbp)
  40243a:	48 b8 4e 53 20 69 73 	movabs $0x6e7520736920534e,%rax
  402441:	20 75 6e 
  402444:	48 89 45 08          	mov    %rax,0x8(%rbp)
  402448:	48 b8 61 62 6c 65 20 	movabs $0x206f7420656c6261,%rax
  40244f:	74 6f 20 
  402452:	48 89 45 10          	mov    %rax,0x10(%rbp)
  402456:	48 b8 72 65 73 6f 6c 	movabs $0x2065766c6f736572,%rax
  40245d:	76 65 20 
  402460:	48 89 45 18          	mov    %rax,0x18(%rbp)
  402464:	48 b8 73 65 72 76 65 	movabs $0x6120726576726573,%rax
  40246b:	72 20 61 
  40246e:	48 89 45 20          	mov    %rax,0x20(%rbp)
  402472:	c7 45 28 64 64 72 65 	movl   $0x65726464,0x28(%rbp)
  402479:	66 c7 45 2c 73 73    	movw   $0x7373,0x2c(%rbp)
  40247f:	c6 45 2e 00          	movb   $0x0,0x2e(%rbp)
  402483:	89 df                	mov    %ebx,%edi
  402485:	e8 66 e7 ff ff       	callq  400bf0 <close@plt>
  40248a:	b8 ff ff ff ff       	mov    $0xffffffff,%eax
  40248f:	e9 31 ff ff ff       	jmpq   4023c5 <init_driver+0xdc>
  402494:	41 b8 c8 2e 40 00    	mov    $0x402ec8,%r8d
  40249a:	b9 88 2e 40 00       	mov    $0x402e88,%ecx
  40249f:	48 c7 c2 ff ff ff ff 	mov    $0xffffffffffffffff,%rdx
  4024a6:	be 01 00 00 00       	mov    $0x1,%esi
  4024ab:	48 89 ef             	mov    %rbp,%rdi
  4024ae:	b8 00 00 00 00       	mov    $0x0,%eax
  4024b3:	e8 68 e8 ff ff       	callq  400d20 <__sprintf_chk@plt>
  4024b8:	89 df                	mov    %ebx,%edi
  4024ba:	e8 31 e7 ff ff       	callq  400bf0 <close@plt>
  4024bf:	b8 ff ff ff ff       	mov    $0xffffffff,%eax
  4024c4:	e9 fc fe ff ff       	jmpq   4023c5 <init_driver+0xdc>
  4024c9:	e8 02 e7 ff ff       	callq  400bd0 <__stack_chk_fail@plt>

00000000004024ce <driver_post>:
  4024ce:	53                   	push   %rbx
  4024cf:	48 89 cb             	mov    %rcx,%rbx
  4024d2:	85 d2                	test   %edx,%edx
  4024d4:	75 17                	jne    4024ed <driver_post+0x1f>
  4024d6:	48 85 ff             	test   %rdi,%rdi
  4024d9:	74 05                	je     4024e0 <driver_post+0x12>
  4024db:	80 3f 00             	cmpb   $0x0,(%rdi)
  4024de:	75 34                	jne    402514 <driver_post+0x46>
  4024e0:	66 c7 03 4f 4b       	movw   $0x4b4f,(%rbx)
  4024e5:	c6 43 02 00          	movb   $0x0,0x2(%rbx)
  4024e9:	89 d0                	mov    %edx,%eax
  4024eb:	5b                   	pop    %rbx
  4024ec:	c3                   	retq   
  4024ed:	48 89 f2             	mov    %rsi,%rdx
  4024f0:	be dd 2e 40 00       	mov    $0x402edd,%esi
  4024f5:	bf 01 00 00 00       	mov    $0x1,%edi
  4024fa:	b8 00 00 00 00       	mov    $0x0,%eax
  4024ff:	e8 9c e7 ff ff       	callq  400ca0 <__printf_chk@plt>
  402504:	66 c7 03 4f 4b       	movw   $0x4b4f,(%rbx)
  402509:	c6 43 02 00          	movb   $0x0,0x2(%rbx)
  40250d:	b8 00 00 00 00       	mov    $0x0,%eax
  402512:	eb d7                	jmp    4024eb <driver_post+0x1d>
  402514:	48 83 ec 08          	sub    $0x8,%rsp
  402518:	51                   	push   %rcx
  402519:	49 89 f1             	mov    %rsi,%r9
  40251c:	41 b8 f4 2e 40 00    	mov    $0x402ef4,%r8d
  402522:	48 89 f9             	mov    %rdi,%rcx
  402525:	ba fb 2e 40 00       	mov    $0x402efb,%edx
  40252a:	be 49 3f 00 00       	mov    $0x3f49,%esi
  40252f:	bf c8 2e 40 00       	mov    $0x402ec8,%edi
  402534:	e8 52 f5 ff ff       	callq  401a8b <submitr>
  402539:	48 83 c4 10          	add    $0x10,%rsp
  40253d:	eb ac                	jmp    4024eb <driver_post+0x1d>
  40253f:	90                   	nop

0000000000402540 <__libc_csu_init>:
  402540:	41 57                	push   %r15
  402542:	41 56                	push   %r14
  402544:	41 89 ff             	mov    %edi,%r15d
  402547:	41 55                	push   %r13
  402549:	41 54                	push   %r12
  40254b:	4c 8d 25 be 18 20 00 	lea    0x2018be(%rip),%r12        # 603e10 <__frame_dummy_init_array_entry>
  402552:	55                   	push   %rbp
  402553:	48 8d 2d be 18 20 00 	lea    0x2018be(%rip),%rbp        # 603e18 <__do_global_dtors_aux_fini_array_entry>
  40255a:	53                   	push   %rbx
  40255b:	49 89 f6             	mov    %rsi,%r14
  40255e:	49 89 d5             	mov    %rdx,%r13
  402561:	4c 29 e5             	sub    %r12,%rbp
  402564:	48 83 ec 08          	sub    $0x8,%rsp
  402568:	48 c1 fd 03          	sar    $0x3,%rbp
  40256c:	e8 c7 e5 ff ff       	callq  400b38 <_init>
  402571:	48 85 ed             	test   %rbp,%rbp
  402574:	74 20                	je     402596 <__libc_csu_init+0x56>
  402576:	31 db                	xor    %ebx,%ebx
  402578:	0f 1f 84 00 00 00 00 	nopl   0x0(%rax,%rax,1)
  40257f:	00 
  402580:	4c 89 ea             	mov    %r13,%rdx
  402583:	4c 89 f6             	mov    %r14,%rsi
  402586:	44 89 ff             	mov    %r15d,%edi
  402589:	41 ff 14 dc          	callq  *(%r12,%rbx,8)
  40258d:	48 83 c3 01          	add    $0x1,%rbx
  402591:	48 39 eb             	cmp    %rbp,%rbx
  402594:	75 ea                	jne    402580 <__libc_csu_init+0x40>
  402596:	48 83 c4 08          	add    $0x8,%rsp
  40259a:	5b                   	pop    %rbx
  40259b:	5d                   	pop    %rbp
  40259c:	41 5c                	pop    %r12
  40259e:	41 5d                	pop    %r13
  4025a0:	41 5e                	pop    %r14
  4025a2:	41 5f                	pop    %r15
  4025a4:	c3                   	retq   
  4025a5:	90                   	nop
  4025a6:	66 2e 0f 1f 84 00 00 	nopw   %cs:0x0(%rax,%rax,1)
  4025ad:	00 00 00 

00000000004025b0 <__libc_csu_fini>:
  4025b0:	f3 c3                	repz retq 

Disassembly of section .fini:

00000000004025b4 <_fini>:
  4025b4:	48 83 ec 08          	sub    $0x8,%rsp
  4025b8:	48 83 c4 08          	add    $0x8,%rsp
  4025bc:	c3                   	retq   
